SF:/Users/ron/Git/phaeton/src/config.rs
FN:432,_RINvMs7_NtCsgT6CZGVyCTz_7phaeton6configNtB6_6Config12save_to_filepEB8_
FN:406,_RINvMs7_NtCsgT6CZGVyCTz_7phaeton6configNtB6_6Config9from_fileRReEB8_
FN:413,_RNvMs7_NtCsgT6CZGVyCTz_7phaeton6configNtB5_6Config4load
FN:439,_RNvMs7_NtCsgT6CZGVyCTz_7phaeton6configNtB5_6Config8validate
FN:275,_RNvXNtCsgT6CZGVyCTz_7phaeton6configNtB2_12ModbusConfigNtNtCsaNl6UpbT7bw_4core7default7Default7default
FN:310,_RNvXs0_NtCsgT6CZGVyCTz_7phaeton6configNtB5_14DefaultsConfigNtNtCsaNl6UpbT7bw_4core7default7Default7default
FN:319,_RNvXs1_NtCsgT6CZGVyCTz_7phaeton6configNtB5_13LoggingConfigNtNtCsaNl6UpbT7bw_4core7default7Default7default
FN:333,_RNvXs2_NtCsgT6CZGVyCTz_7phaeton6configNtB5_12TibberConfigNtNtCsaNl6UpbT7bw_4core7default7Default7default
FN:348,_RNvXs3_NtCsgT6CZGVyCTz_7phaeton6configNtB5_14ControlsConfigNtNtCsaNl6UpbT7bw_4core7default7Default7default
FN:365,_RNvXs4_NtCsgT6CZGVyCTz_7phaeton6configNtB5_9WebConfigNtNtCsaNl6UpbT7bw_4core7default7Default7default
FN:374,_RNvXs5_NtCsgT6CZGVyCTz_7phaeton6configNtB5_13PricingConfigNtNtCsaNl6UpbT7bw_4core7default7Default7default
FN:384,_RNvXs6_NtCsgT6CZGVyCTz_7phaeton6configNtB5_6ConfigNtNtCsaNl6UpbT7bw_4core7default7Default7default
FN:286,_RNvXs_NtCsgT6CZGVyCTz_7phaeton6configNtB4_15RegistersConfigNtNtCsaNl6UpbT7bw_4core7default7Default7default
FN:432,_RINvMs7_NtCs8Qt6rdyaNFv_7phaeton6configNtB6_6Config12save_to_filepEB8_
FN:406,_RINvMs7_NtCs8Qt6rdyaNFv_7phaeton6configNtB6_6Config9from_filepEB8_
FN:413,_RNvMs7_NtCs8Qt6rdyaNFv_7phaeton6configNtB5_6Config4load
FN:487,_RNvNtNtCs8Qt6rdyaNFv_7phaeton6config5testss_19test_default_config
FN:495,_RNvNtNtCs8Qt6rdyaNFv_7phaeton6config5testss_22test_config_validation
FN:510,_RNvNtNtCs8Qt6rdyaNFv_7phaeton6config5testss_25test_config_serialization
FN:439,_RNvMs7_NtCs8Qt6rdyaNFv_7phaeton6configNtB5_6Config8validate
FN:275,_RNvXNtCs8Qt6rdyaNFv_7phaeton6configNtB2_12ModbusConfigNtNtCsaNl6UpbT7bw_4core7default7Default7default
FN:310,_RNvXs0_NtCs8Qt6rdyaNFv_7phaeton6configNtB5_14DefaultsConfigNtNtCsaNl6UpbT7bw_4core7default7Default7default
FN:319,_RNvXs1_NtCs8Qt6rdyaNFv_7phaeton6configNtB5_13LoggingConfigNtNtCsaNl6UpbT7bw_4core7default7Default7default
FN:333,_RNvXs2_NtCs8Qt6rdyaNFv_7phaeton6configNtB5_12TibberConfigNtNtCsaNl6UpbT7bw_4core7default7Default7default
FN:348,_RNvXs3_NtCs8Qt6rdyaNFv_7phaeton6configNtB5_14ControlsConfigNtNtCsaNl6UpbT7bw_4core7default7Default7default
FN:365,_RNvXs4_NtCs8Qt6rdyaNFv_7phaeton6configNtB5_9WebConfigNtNtCsaNl6UpbT7bw_4core7default7Default7default
FN:374,_RNvXs5_NtCs8Qt6rdyaNFv_7phaeton6configNtB5_13PricingConfigNtNtCsaNl6UpbT7bw_4core7default7Default7default
FN:384,_RNvXs6_NtCs8Qt6rdyaNFv_7phaeton6configNtB5_6ConfigNtNtCsaNl6UpbT7bw_4core7default7Default7default
FN:286,_RNvXs_NtCs8Qt6rdyaNFv_7phaeton6configNtB4_15RegistersConfigNtNtCsaNl6UpbT7bw_4core7default7Default7default
FNDA:0,_RINvMs7_NtCsgT6CZGVyCTz_7phaeton6configNtB6_6Config12save_to_filepEB8_
FNDA:0,_RINvMs7_NtCsgT6CZGVyCTz_7phaeton6configNtB6_6Config9from_fileRReEB8_
FNDA:0,_RNvMs7_NtCsgT6CZGVyCTz_7phaeton6configNtB5_6Config4load
FNDA:0,_RNvMs7_NtCsgT6CZGVyCTz_7phaeton6configNtB5_6Config8validate
FNDA:5,_RNvXNtCsgT6CZGVyCTz_7phaeton6configNtB2_12ModbusConfigNtNtCsaNl6UpbT7bw_4core7default7Default7default
FNDA:4,_RNvXs0_NtCsgT6CZGVyCTz_7phaeton6configNtB5_14DefaultsConfigNtNtCsaNl6UpbT7bw_4core7default7Default7default
FNDA:4,_RNvXs1_NtCsgT6CZGVyCTz_7phaeton6configNtB5_13LoggingConfigNtNtCsaNl6UpbT7bw_4core7default7Default7default
FNDA:4,_RNvXs2_NtCsgT6CZGVyCTz_7phaeton6configNtB5_12TibberConfigNtNtCsaNl6UpbT7bw_4core7default7Default7default
FNDA:4,_RNvXs3_NtCsgT6CZGVyCTz_7phaeton6configNtB5_14ControlsConfigNtNtCsaNl6UpbT7bw_4core7default7Default7default
FNDA:4,_RNvXs4_NtCsgT6CZGVyCTz_7phaeton6configNtB5_9WebConfigNtNtCsaNl6UpbT7bw_4core7default7Default7default
FNDA:4,_RNvXs5_NtCsgT6CZGVyCTz_7phaeton6configNtB5_13PricingConfigNtNtCsaNl6UpbT7bw_4core7default7Default7default
FNDA:4,_RNvXs6_NtCsgT6CZGVyCTz_7phaeton6configNtB5_6ConfigNtNtCsaNl6UpbT7bw_4core7default7Default7default
FNDA:4,_RNvXs_NtCsgT6CZGVyCTz_7phaeton6configNtB4_15RegistersConfigNtNtCsaNl6UpbT7bw_4core7default7Default7default
FNDA:0,_RINvMs7_NtCs8Qt6rdyaNFv_7phaeton6configNtB6_6Config12save_to_filepEB8_
FNDA:0,_RINvMs7_NtCs8Qt6rdyaNFv_7phaeton6configNtB6_6Config9from_filepEB8_
FNDA:0,_RNvMs7_NtCs8Qt6rdyaNFv_7phaeton6configNtB5_6Config4load
FNDA:1,_RNvNtNtCs8Qt6rdyaNFv_7phaeton6config5testss_19test_default_config
FNDA:1,_RNvNtNtCs8Qt6rdyaNFv_7phaeton6config5testss_22test_config_validation
FNDA:1,_RNvNtNtCs8Qt6rdyaNFv_7phaeton6config5testss_25test_config_serialization
FNDA:3,_RNvMs7_NtCs8Qt6rdyaNFv_7phaeton6configNtB5_6Config8validate
FNDA:6,_RNvXNtCs8Qt6rdyaNFv_7phaeton6configNtB2_12ModbusConfigNtNtCsaNl6UpbT7bw_4core7default7Default7default
FNDA:4,_RNvXs0_NtCs8Qt6rdyaNFv_7phaeton6configNtB5_14DefaultsConfigNtNtCsaNl6UpbT7bw_4core7default7Default7default
FNDA:5,_RNvXs1_NtCs8Qt6rdyaNFv_7phaeton6configNtB5_13LoggingConfigNtNtCsaNl6UpbT7bw_4core7default7Default7default
FNDA:4,_RNvXs2_NtCs8Qt6rdyaNFv_7phaeton6configNtB5_12TibberConfigNtNtCsaNl6UpbT7bw_4core7default7Default7default
FNDA:4,_RNvXs3_NtCs8Qt6rdyaNFv_7phaeton6configNtB5_14ControlsConfigNtNtCsaNl6UpbT7bw_4core7default7Default7default
FNDA:4,_RNvXs4_NtCs8Qt6rdyaNFv_7phaeton6configNtB5_9WebConfigNtNtCsaNl6UpbT7bw_4core7default7Default7default
FNDA:4,_RNvXs5_NtCs8Qt6rdyaNFv_7phaeton6configNtB5_13PricingConfigNtNtCsaNl6UpbT7bw_4core7default7Default7default
FNDA:4,_RNvXs6_NtCs8Qt6rdyaNFv_7phaeton6configNtB5_6ConfigNtNtCsaNl6UpbT7bw_4core7default7Default7default
FNDA:4,_RNvXs_NtCs8Qt6rdyaNFv_7phaeton6configNtB4_15RegistersConfigNtNtCsaNl6UpbT7bw_4core7default7Default7default
FNF:16
FNH:13
DA:275,11
DA:276,11
DA:277,11
DA:278,11
DA:279,11
DA:280,11
DA:281,11
DA:282,11
DA:286,8
DA:287,8
DA:288,8
DA:289,8
DA:290,8
DA:291,8
DA:292,8
DA:293,8
DA:294,8
DA:295,8
DA:296,8
DA:297,8
DA:298,8
DA:299,8
DA:300,8
DA:301,8
DA:302,8
DA:303,8
DA:304,8
DA:305,8
DA:306,8
DA:310,8
DA:311,8
DA:312,8
DA:313,8
DA:314,8
DA:315,8
DA:319,9
DA:320,9
DA:321,9
DA:322,9
DA:323,9
DA:324,9
DA:325,9
DA:326,9
DA:327,9
DA:328,9
DA:329,9
DA:333,8
DA:334,8
DA:335,8
DA:336,8
DA:337,8
DA:338,8
DA:339,8
DA:340,8
DA:341,8
DA:342,8
DA:343,8
DA:344,8
DA:348,8
DA:349,8
DA:350,8
DA:351,8
DA:352,8
DA:353,8
DA:354,8
DA:355,8
DA:356,8
DA:357,8
DA:358,8
DA:359,8
DA:360,8
DA:361,8
DA:365,8
DA:366,8
DA:367,8
DA:368,8
DA:369,8
DA:370,8
DA:374,8
DA:375,8
DA:376,8
DA:377,8
DA:378,8
DA:379,8
DA:380,8
DA:384,8
DA:385,8
DA:386,8
DA:387,8
DA:388,8
DA:389,8
DA:390,8
DA:391,8
DA:392,8
DA:393,8
DA:394,8
DA:395,8
DA:396,8
DA:397,8
DA:398,8
DA:399,8
DA:400,8
DA:401,8
DA:406,0
DA:407,0
DA:408,0
DA:409,0
DA:410,0
DA:413,0
DA:415,0
DA:416,0
DA:417,0
DA:418,0
DA:419,0
DA:421,0
DA:422,0
DA:423,0
DA:424,0
DA:428,0
DA:429,0
DA:432,0
DA:433,0
DA:434,0
DA:435,0
DA:436,0
DA:439,3
DA:441,3
DA:442,1
DA:443,1
DA:444,1
DA:445,1
DA:446,2
DA:448,2
DA:449,1
DA:450,1
DA:451,1
DA:452,1
DA:453,1
DA:456,1
DA:457,0
DA:458,0
DA:459,0
DA:460,0
DA:461,1
DA:463,1
DA:464,0
DA:465,0
DA:466,0
DA:467,0
DA:468,1
DA:471,1
DA:472,0
DA:473,0
DA:474,0
DA:475,0
DA:476,1
DA:478,1
DA:479,3
DA:487,1
DA:488,1
DA:489,1
DA:490,1
DA:491,1
DA:492,1
DA:495,1
DA:496,1
DA:497,1
DA:500,1
DA:501,1
DA:504,1
DA:505,1
DA:506,1
DA:507,1
DA:510,1
DA:511,1
DA:512,1
DA:513,1
DA:514,1
DA:515,1
BRF:0
BRH:0
LF:179
LH:145
end_of_record
SF:/Users/ron/Git/phaeton/src/controls.rs
FN:66,_RNCNvMs0_NtCsgT6CZGVyCTz_7phaeton8controlsNtB7_16ChargingControls25compute_effective_current0Csk5TgQ0v3Z8L_13controls_test
FN:97,_RNCNvMs0_NtCsgT6CZGVyCTz_7phaeton8controlsNtB7_16ChargingControls13apply_current0B9_
FN:66,_RNCNvMs0_NtCsgT6CZGVyCTz_7phaeton8controlsNtB7_16ChargingControls25compute_effective_current0B9_
FN:42,_RNvMNtCsgT6CZGVyCTz_7phaeton8controlsNtB2_16ChargingControls3new
FN:137,_RNvMs0_NtCsgT6CZGVyCTz_7phaeton8controlsNtB5_16ChargingControls10parse_hhmm
FN:97,_RNvMs0_NtCsgT6CZGVyCTz_7phaeton8controlsNtB5_16ChargingControls13apply_current
FN:102,_RNvMs0_NtCsgT6CZGVyCTz_7phaeton8controlsNtB5_16ChargingControls22is_within_any_schedule
FN:57,_RNvMs0_NtCsgT6CZGVyCTz_7phaeton8controlsNtB5_16ChargingControls25compute_effective_current
FN:49,_RNvXs_NtCsgT6CZGVyCTz_7phaeton8controlsNtB4_16ChargingControlsNtNtCsaNl6UpbT7bw_4core7default7Default7default
FN:106,_RNCNvMs0_NtCsgT6CZGVyCTz_7phaeton8controlsNtB7_16ChargingControls22is_within_any_schedule0B9_
FN:66,_RNCNvMs0_NtCsgT6CZGVyCTz_7phaeton8controlsNtB7_16ChargingControls25compute_effective_current0Cs4JsBA7u6QVm_7phaeton
FN:97,_RNCNvMs0_NtCs8Qt6rdyaNFv_7phaeton8controlsNtB7_16ChargingControls13apply_current0B9_
FN:106,_RNCNvMs0_NtCs8Qt6rdyaNFv_7phaeton8controlsNtB7_16ChargingControls22is_within_any_schedule0B9_
FN:66,_RNCNvMs0_NtCs8Qt6rdyaNFv_7phaeton8controlsNtB7_16ChargingControls25compute_effective_current0B9_
FN:42,_RNvMNtCs8Qt6rdyaNFv_7phaeton8controlsNtB2_16ChargingControls3new
FN:97,_RNvMs0_NtCs8Qt6rdyaNFv_7phaeton8controlsNtB5_16ChargingControls13apply_current
FN:102,_RNvMs0_NtCs8Qt6rdyaNFv_7phaeton8controlsNtB5_16ChargingControls22is_within_any_schedule
FN:57,_RNvMs0_NtCs8Qt6rdyaNFv_7phaeton8controlsNtB5_16ChargingControls25compute_effective_current
FN:49,_RNvXs_NtCs8Qt6rdyaNFv_7phaeton8controlsNtB4_16ChargingControlsNtNtCsaNl6UpbT7bw_4core7default7Default7default
FN:137,_RNvMs0_NtCs8Qt6rdyaNFv_7phaeton8controlsNtB5_16ChargingControls10parse_hhmm
FN:153,_RNvNtNtCs8Qt6rdyaNFv_7phaeton8controls5testss_15test_parse_hhmm
FNDA:5,_RNCNvMs0_NtCsgT6CZGVyCTz_7phaeton8controlsNtB7_16ChargingControls25compute_effective_current0Csk5TgQ0v3Z8L_13controls_test
FNDA:0,_RNCNvMs0_NtCsgT6CZGVyCTz_7phaeton8controlsNtB7_16ChargingControls13apply_current0B9_
FNDA:0,_RNCNvMs0_NtCsgT6CZGVyCTz_7phaeton8controlsNtB7_16ChargingControls25compute_effective_current0B9_
FNDA:4,_RNvMNtCsgT6CZGVyCTz_7phaeton8controlsNtB2_16ChargingControls3new
FNDA:2,_RNvMs0_NtCsgT6CZGVyCTz_7phaeton8controlsNtB5_16ChargingControls10parse_hhmm
FNDA:0,_RNvMs0_NtCsgT6CZGVyCTz_7phaeton8controlsNtB5_16ChargingControls13apply_current
FNDA:2,_RNvMs0_NtCsgT6CZGVyCTz_7phaeton8controlsNtB5_16ChargingControls22is_within_any_schedule
FNDA:5,_RNvMs0_NtCsgT6CZGVyCTz_7phaeton8controlsNtB5_16ChargingControls25compute_effective_current
FNDA:0,_RNvXs_NtCsgT6CZGVyCTz_7phaeton8controlsNtB4_16ChargingControlsNtNtCsaNl6UpbT7bw_4core7default7Default7default
FNDA:0,_RNCNvMs0_NtCsgT6CZGVyCTz_7phaeton8controlsNtB7_16ChargingControls22is_within_any_schedule0B9_
FNDA:0,_RNCNvMs0_NtCsgT6CZGVyCTz_7phaeton8controlsNtB7_16ChargingControls25compute_effective_current0Cs4JsBA7u6QVm_7phaeton
FNDA:0,_RNCNvMs0_NtCs8Qt6rdyaNFv_7phaeton8controlsNtB7_16ChargingControls13apply_current0B9_
FNDA:0,_RNCNvMs0_NtCs8Qt6rdyaNFv_7phaeton8controlsNtB7_16ChargingControls22is_within_any_schedule0B9_
FNDA:0,_RNCNvMs0_NtCs8Qt6rdyaNFv_7phaeton8controlsNtB7_16ChargingControls25compute_effective_current0B9_
FNDA:0,_RNvMNtCs8Qt6rdyaNFv_7phaeton8controlsNtB2_16ChargingControls3new
FNDA:0,_RNvMs0_NtCs8Qt6rdyaNFv_7phaeton8controlsNtB5_16ChargingControls13apply_current
FNDA:0,_RNvMs0_NtCs8Qt6rdyaNFv_7phaeton8controlsNtB5_16ChargingControls22is_within_any_schedule
FNDA:0,_RNvMs0_NtCs8Qt6rdyaNFv_7phaeton8controlsNtB5_16ChargingControls25compute_effective_current
FNDA:0,_RNvXs_NtCs8Qt6rdyaNFv_7phaeton8controlsNtB4_16ChargingControlsNtNtCsaNl6UpbT7bw_4core7default7Default7default
FNDA:4,_RNvMs0_NtCs8Qt6rdyaNFv_7phaeton8controlsNtB5_16ChargingControls10parse_hhmm
FNDA:1,_RNvNtNtCs8Qt6rdyaNFv_7phaeton8controls5testss_15test_parse_hhmm
FNF:10
FNH:6
DA:42,4
DA:43,4
DA:44,4
DA:45,4
DA:49,0
DA:50,0
DA:51,0
DA:57,5
DA:58,5
DA:59,5
DA:60,5
DA:61,5
DA:62,5
DA:63,5
DA:64,5
DA:65,5
DA:66,5
DA:67,5
DA:68,1
DA:69,4
DA:71,4
DA:72,1
DA:76,1
DA:77,1
DA:78,1
DA:79,1
DA:81,1
DA:82,1
DA:85,2
DA:86,1
DA:88,1
DA:93,4
DA:94,5
DA:97,0
DA:99,0
DA:100,0
DA:102,2
DA:103,2
DA:104,2
DA:105,2
DA:106,2
DA:107,2
DA:108,2
DA:109,2
DA:110,2
DA:112,3
DA:113,2
DA:114,0
DA:115,2
DA:116,2
DA:117,1
DA:118,1
DA:119,1
DA:120,1
DA:121,1
DA:122,0
DA:123,1
DA:124,1
DA:125,1
DA:126,0
DA:128,1
DA:130,1
DA:131,1
DA:132,0
DA:134,1
DA:135,2
DA:137,6
DA:138,6
DA:139,6
DA:140,1
DA:141,5
DA:142,5
DA:143,5
DA:144,5
DA:145,6
DA:153,1
DA:154,1
DA:155,1
DA:156,1
DA:157,1
DA:158,1
BRF:0
BRH:0
LF:84
LH:72
end_of_record
SF:/Users/ron/Git/phaeton/src/dbus.rs
FN:281,_RNvMNtCsgT6CZGVyCTz_7phaeton4dbusNtB2_11DbusService11ensure_item
FN:322,_RNvMNtCsgT6CZGVyCTz_7phaeton4dbusNtB2_11DbusService11update_path
FN:502,_RNvMNtCsgT6CZGVyCTz_7phaeton4dbusNtB2_11DbusService12request_name
FN:495,_RNvMNtCsgT6CZGVyCTz_7phaeton4dbusNtB2_11DbusService3get
FN:196,_RNvMNtCsgT6CZGVyCTz_7phaeton4dbusNtB2_11DbusService3new
FN:274,_RNvMNtCsgT6CZGVyCTz_7phaeton4dbusNtB2_11DbusService4stop
FN:221,_RNvMNtCsgT6CZGVyCTz_7phaeton4dbusNtB2_11DbusService5start
FN:560,_RNvMs0_NtCsgT6CZGVyCTz_7phaeton4dbusNtB5_7BusItem20owned_value_to_serde
FN:541,_RNvMs0_NtCsgT6CZGVyCTz_7phaeton4dbusNtB5_7BusItem20serde_to_owned_value
FN:537,_RNvMs0_NtCsgT6CZGVyCTz_7phaeton4dbusNtB5_7BusItem3new
FN:100,_RNvMs2_NtCsgT6CZGVyCTz_7phaeton4dbusNtB5_9EvCharger10ac_current
FN:80,_RNvMs2_NtCsgT6CZGVyCTz_7phaeton4dbusNtB5_9EvCharger10start_stop
FN:136,_RNvMs2_NtCsgT6CZGVyCTz_7phaeton4dbusNtB5_9EvCharger11ac_l1_power
FN:140,_RNvMs2_NtCsgT6CZGVyCTz_7phaeton4dbusNtB5_9EvCharger11ac_l2_power
FN:144,_RNvMs2_NtCsgT6CZGVyCTz_7phaeton4dbusNtB5_9EvCharger11ac_l3_power
FN:85,_RNvMs2_NtCsgT6CZGVyCTz_7phaeton4dbusNtB5_9EvCharger11set_current
FN:60,_RNvMs2_NtCsgT6CZGVyCTz_7phaeton4dbusNtB5_9EvCharger12product_name
FN:123,_RNvMs2_NtCsgT6CZGVyCTz_7phaeton4dbusNtB5_9EvCharger13ac_l1_current
FN:110,_RNvMs2_NtCsgT6CZGVyCTz_7phaeton4dbusNtB5_9EvCharger13ac_l1_voltage
FN:127,_RNvMs2_NtCsgT6CZGVyCTz_7phaeton4dbusNtB5_9EvCharger13ac_l2_current
FN:114,_RNvMs2_NtCsgT6CZGVyCTz_7phaeton4dbusNtB5_9EvCharger13ac_l2_voltage
FN:131,_RNvMs2_NtCsgT6CZGVyCTz_7phaeton4dbusNtB5_9EvCharger13ac_l3_current
FN:118,_RNvMs2_NtCsgT6CZGVyCTz_7phaeton4dbusNtB5_9EvCharger13ac_l3_voltage
FN:154,_RNvMs2_NtCsgT6CZGVyCTz_7phaeton4dbusNtB5_9EvCharger13charging_time
FN:105,_RNvMs2_NtCsgT6CZGVyCTz_7phaeton4dbusNtB5_9EvCharger14ac_phase_count
FN:167,_RNvMs2_NtCsgT6CZGVyCTz_7phaeton4dbusNtB5_9EvCharger14set_start_stop
FN:55,_RNvMs2_NtCsgT6CZGVyCTz_7phaeton4dbusNtB5_9EvCharger15device_instance
FN:174,_RNvMs2_NtCsgT6CZGVyCTz_7phaeton4dbusNtB5_9EvCharger15set_set_current
FN:65,_RNvMs2_NtCsgT6CZGVyCTz_7phaeton4dbusNtB5_9EvCharger16firmware_version
FN:95,_RNvMs2_NtCsgT6CZGVyCTz_7phaeton4dbusNtB5_9EvCharger17ac_energy_forward
FN:75,_RNvMs2_NtCsgT6CZGVyCTz_7phaeton4dbusNtB5_9EvCharger4mode
FN:70,_RNvMs2_NtCsgT6CZGVyCTz_7phaeton4dbusNtB5_9EvCharger6serial
FN:149,_RNvMs2_NtCsgT6CZGVyCTz_7phaeton4dbusNtB5_9EvCharger6status
FN:90,_RNvMs2_NtCsgT6CZGVyCTz_7phaeton4dbusNtB5_9EvCharger8ac_power
FN:160,_RNvMs2_NtCsgT6CZGVyCTz_7phaeton4dbusNtB5_9EvCharger8set_mode
FN:630,_RNvMs5_NtCsgT6CZGVyCTz_7phaeton4dbusNtB5_7BusItem8get_text
FN:584,_RNvMs5_NtCsgT6CZGVyCTz_7phaeton4dbusNtB5_7BusItem9get_value
FN:598,_RNvMs5_NtCsgT6CZGVyCTz_7phaeton4dbusNtB5_7BusItem9set_value
FN:521,_RNvMs_NtCsgT6CZGVyCTz_7phaeton4dbusNtB4_15DbusSharedState3new
FN:484,_RINvMNtCsgT6CZGVyCTz_7phaeton4dbusNtB3_11DbusService12update_pathspEB5_
FN:487,_RNCINvMNtCsgT6CZGVyCTz_7phaeton4dbusNtB5_11DbusService12update_pathspE0B7_
FN:207,_RNCNCNvMNtCsgT6CZGVyCTz_7phaeton4dbusNtB6_11DbusService3new00B8_
FN:227,_RNCNCNvMNtCsgT6CZGVyCTz_7phaeton4dbusNtB6_11DbusService5start00B8_
FN:268,_RNCNCNvMNtCsgT6CZGVyCTz_7phaeton4dbusNtB6_11DbusService5start0s0_0B8_
FN:233,_RNCNCNvMNtCsgT6CZGVyCTz_7phaeton4dbusNtB6_11DbusService5start0s_0B8_
FN:502,_RNCNvMNtCsgT6CZGVyCTz_7phaeton4dbusNtB4_11DbusService12request_name0B6_
FN:199,_RNCNvMNtCsgT6CZGVyCTz_7phaeton4dbusNtB4_11DbusService3new0B6_
FN:274,_RNCNvMNtCsgT6CZGVyCTz_7phaeton4dbusNtB4_11DbusService4stop0B6_
FN:221,_RNCNvMNtCsgT6CZGVyCTz_7phaeton4dbusNtB4_11DbusService5start0B6_
FN:289,_RNCNCNvMNtCsgT6CZGVyCTz_7phaeton4dbusNtB6_11DbusService11ensure_item00B8_
FN:299,_RNCNCNvMNtCsgT6CZGVyCTz_7phaeton4dbusNtB6_11DbusService11ensure_item0s_0B8_
FN:339,_RNCNCNvMNtCsgT6CZGVyCTz_7phaeton4dbusNtB6_11DbusService11update_path00B8_
FN:286,_RNCNvMNtCsgT6CZGVyCTz_7phaeton4dbusNtB4_11DbusService11ensure_item0B6_
FN:322,_RNCNvMNtCsgT6CZGVyCTz_7phaeton4dbusNtB4_11DbusService11update_path0B6_
FN:555,_RNCNvMs0_NtCsgT6CZGVyCTz_7phaeton4dbusNtB7_7BusItem20serde_to_owned_value0B9_
FN:170,_RNCNvMs2_NtCsgT6CZGVyCTz_7phaeton4dbusNtB7_9EvCharger14set_start_stop0B9_
FN:177,_RNCNvMs2_NtCsgT6CZGVyCTz_7phaeton4dbusNtB7_9EvCharger15set_set_current0B9_
FN:163,_RNCNvMs2_NtCsgT6CZGVyCTz_7phaeton4dbusNtB7_9EvCharger8set_mode0B9_
FN:630,_RNCNvMs5_NtCsgT6CZGVyCTz_7phaeton4dbusNtB7_7BusItem8get_text0B9_
FN:584,_RNCNvMs5_NtCsgT6CZGVyCTz_7phaeton4dbusNtB7_7BusItem9get_value0B9_
FN:598,_RNCNvMs5_NtCsgT6CZGVyCTz_7phaeton4dbusNtB7_7BusItem9set_value0B9_
FN:484,_RINvMNtCsgT6CZGVyCTz_7phaeton4dbusNtB3_11DbusService12update_pathsATNtNtCsiTraAjBDcu4_5alloc6string6StringNtNtCsbQvEGqeA7WV_10serde_json5value5ValueEj5_ECs4JsBA7u6QVm_7phaeton
FN:484,_RINvMNtCsgT6CZGVyCTz_7phaeton4dbusNtB3_11DbusService12update_pathsINtNtCsiTraAjBDcu4_5alloc3vec3VecTNtNtB17_6string6StringNtNtCsbQvEGqeA7WV_10serde_json5value5ValueEEECs4JsBA7u6QVm_7phaeton
FN:487,_RNCINvMNtCsgT6CZGVyCTz_7phaeton4dbusNtB5_11DbusService12update_pathsATNtNtCsiTraAjBDcu4_5alloc6string6StringNtNtCsbQvEGqeA7WV_10serde_json5value5ValueEj5_E0Cs4JsBA7u6QVm_7phaeton
FN:487,_RNCINvMNtCsgT6CZGVyCTz_7phaeton4dbusNtB5_11DbusService12update_pathsINtNtCsiTraAjBDcu4_5alloc3vec3VecTNtNtB19_6string6StringNtNtCsbQvEGqeA7WV_10serde_json5value5ValueEEE0Cs4JsBA7u6QVm_7phaeton
FN:207,_RNCNCNvMNtCsgT6CZGVyCTz_7phaeton4dbusNtB6_11DbusService3new00Cs4JsBA7u6QVm_7phaeton
FN:227,_RNCNCNvMNtCsgT6CZGVyCTz_7phaeton4dbusNtB6_11DbusService5start00Cs4JsBA7u6QVm_7phaeton
FN:268,_RNCNCNvMNtCsgT6CZGVyCTz_7phaeton4dbusNtB6_11DbusService5start0s0_0Cs4JsBA7u6QVm_7phaeton
FN:233,_RNCNCNvMNtCsgT6CZGVyCTz_7phaeton4dbusNtB6_11DbusService5start0s_0Cs4JsBA7u6QVm_7phaeton
FN:502,_RNCNvMNtCsgT6CZGVyCTz_7phaeton4dbusNtB4_11DbusService12request_name0Cs4JsBA7u6QVm_7phaeton
FN:199,_RNCNvMNtCsgT6CZGVyCTz_7phaeton4dbusNtB4_11DbusService3new0Cs4JsBA7u6QVm_7phaeton
FN:221,_RNCNvMNtCsgT6CZGVyCTz_7phaeton4dbusNtB4_11DbusService5start0Cs4JsBA7u6QVm_7phaeton
FN:484,_RINvMNtCs8Qt6rdyaNFv_7phaeton4dbusNtB3_11DbusService12update_pathspEB5_
FN:487,_RNCINvMNtCs8Qt6rdyaNFv_7phaeton4dbusNtB5_11DbusService12update_pathspE0B7_
FN:289,_RNCNCNvMNtCs8Qt6rdyaNFv_7phaeton4dbusNtB6_11DbusService11ensure_item00B8_
FN:299,_RNCNCNvMNtCs8Qt6rdyaNFv_7phaeton4dbusNtB6_11DbusService11ensure_item0s_0B8_
FN:339,_RNCNCNvMNtCs8Qt6rdyaNFv_7phaeton4dbusNtB6_11DbusService11update_path00B8_
FN:207,_RNCNCNvMNtCs8Qt6rdyaNFv_7phaeton4dbusNtB6_11DbusService3new00B8_
FN:227,_RNCNCNvMNtCs8Qt6rdyaNFv_7phaeton4dbusNtB6_11DbusService5start00B8_
FN:268,_RNCNCNvMNtCs8Qt6rdyaNFv_7phaeton4dbusNtB6_11DbusService5start0s0_0B8_
FN:233,_RNCNCNvMNtCs8Qt6rdyaNFv_7phaeton4dbusNtB6_11DbusService5start0s_0B8_
FN:286,_RNCNvMNtCs8Qt6rdyaNFv_7phaeton4dbusNtB4_11DbusService11ensure_item0B6_
FN:322,_RNCNvMNtCs8Qt6rdyaNFv_7phaeton4dbusNtB4_11DbusService11update_path0B6_
FN:502,_RNCNvMNtCs8Qt6rdyaNFv_7phaeton4dbusNtB4_11DbusService12request_name0B6_
FN:199,_RNCNvMNtCs8Qt6rdyaNFv_7phaeton4dbusNtB4_11DbusService3new0B6_
FN:274,_RNCNvMNtCs8Qt6rdyaNFv_7phaeton4dbusNtB4_11DbusService4stop0B6_
FN:221,_RNCNvMNtCs8Qt6rdyaNFv_7phaeton4dbusNtB4_11DbusService5start0B6_
FN:170,_RNCNvMs2_NtCs8Qt6rdyaNFv_7phaeton4dbusNtB7_9EvCharger14set_start_stop0B9_
FN:177,_RNCNvMs2_NtCs8Qt6rdyaNFv_7phaeton4dbusNtB7_9EvCharger15set_set_current0B9_
FN:163,_RNCNvMs2_NtCs8Qt6rdyaNFv_7phaeton4dbusNtB7_9EvCharger8set_mode0B9_
FN:630,_RNCNvMs5_NtCs8Qt6rdyaNFv_7phaeton4dbusNtB7_7BusItem8get_text0B9_
FN:584,_RNCNvMs5_NtCs8Qt6rdyaNFv_7phaeton4dbusNtB7_7BusItem9get_value0B9_
FN:598,_RNCNvMs5_NtCs8Qt6rdyaNFv_7phaeton4dbusNtB7_7BusItem9set_value0B9_
FN:281,_RNvMNtCs8Qt6rdyaNFv_7phaeton4dbusNtB2_11DbusService11ensure_item
FN:322,_RNvMNtCs8Qt6rdyaNFv_7phaeton4dbusNtB2_11DbusService11update_path
FN:502,_RNvMNtCs8Qt6rdyaNFv_7phaeton4dbusNtB2_11DbusService12request_name
FN:495,_RNvMNtCs8Qt6rdyaNFv_7phaeton4dbusNtB2_11DbusService3get
FN:196,_RNvMNtCs8Qt6rdyaNFv_7phaeton4dbusNtB2_11DbusService3new
FN:274,_RNvMNtCs8Qt6rdyaNFv_7phaeton4dbusNtB2_11DbusService4stop
FN:221,_RNvMNtCs8Qt6rdyaNFv_7phaeton4dbusNtB2_11DbusService5start
FN:537,_RNvMs0_NtCs8Qt6rdyaNFv_7phaeton4dbusNtB5_7BusItem3new
FN:100,_RNvMs2_NtCs8Qt6rdyaNFv_7phaeton4dbusNtB5_9EvCharger10ac_current
FN:80,_RNvMs2_NtCs8Qt6rdyaNFv_7phaeton4dbusNtB5_9EvCharger10start_stop
FN:136,_RNvMs2_NtCs8Qt6rdyaNFv_7phaeton4dbusNtB5_9EvCharger11ac_l1_power
FN:140,_RNvMs2_NtCs8Qt6rdyaNFv_7phaeton4dbusNtB5_9EvCharger11ac_l2_power
FN:144,_RNvMs2_NtCs8Qt6rdyaNFv_7phaeton4dbusNtB5_9EvCharger11ac_l3_power
FN:85,_RNvMs2_NtCs8Qt6rdyaNFv_7phaeton4dbusNtB5_9EvCharger11set_current
FN:60,_RNvMs2_NtCs8Qt6rdyaNFv_7phaeton4dbusNtB5_9EvCharger12product_name
FN:123,_RNvMs2_NtCs8Qt6rdyaNFv_7phaeton4dbusNtB5_9EvCharger13ac_l1_current
FN:110,_RNvMs2_NtCs8Qt6rdyaNFv_7phaeton4dbusNtB5_9EvCharger13ac_l1_voltage
FN:127,_RNvMs2_NtCs8Qt6rdyaNFv_7phaeton4dbusNtB5_9EvCharger13ac_l2_current
FN:114,_RNvMs2_NtCs8Qt6rdyaNFv_7phaeton4dbusNtB5_9EvCharger13ac_l2_voltage
FN:131,_RNvMs2_NtCs8Qt6rdyaNFv_7phaeton4dbusNtB5_9EvCharger13ac_l3_current
FN:118,_RNvMs2_NtCs8Qt6rdyaNFv_7phaeton4dbusNtB5_9EvCharger13ac_l3_voltage
FN:154,_RNvMs2_NtCs8Qt6rdyaNFv_7phaeton4dbusNtB5_9EvCharger13charging_time
FN:105,_RNvMs2_NtCs8Qt6rdyaNFv_7phaeton4dbusNtB5_9EvCharger14ac_phase_count
FN:167,_RNvMs2_NtCs8Qt6rdyaNFv_7phaeton4dbusNtB5_9EvCharger14set_start_stop
FN:55,_RNvMs2_NtCs8Qt6rdyaNFv_7phaeton4dbusNtB5_9EvCharger15device_instance
FN:174,_RNvMs2_NtCs8Qt6rdyaNFv_7phaeton4dbusNtB5_9EvCharger15set_set_current
FN:65,_RNvMs2_NtCs8Qt6rdyaNFv_7phaeton4dbusNtB5_9EvCharger16firmware_version
FN:95,_RNvMs2_NtCs8Qt6rdyaNFv_7phaeton4dbusNtB5_9EvCharger17ac_energy_forward
FN:75,_RNvMs2_NtCs8Qt6rdyaNFv_7phaeton4dbusNtB5_9EvCharger4mode
FN:70,_RNvMs2_NtCs8Qt6rdyaNFv_7phaeton4dbusNtB5_9EvCharger6serial
FN:149,_RNvMs2_NtCs8Qt6rdyaNFv_7phaeton4dbusNtB5_9EvCharger6status
FN:90,_RNvMs2_NtCs8Qt6rdyaNFv_7phaeton4dbusNtB5_9EvCharger8ac_power
FN:160,_RNvMs2_NtCs8Qt6rdyaNFv_7phaeton4dbusNtB5_9EvCharger8set_mode
FN:630,_RNvMs5_NtCs8Qt6rdyaNFv_7phaeton4dbusNtB5_7BusItem8get_text
FN:584,_RNvMs5_NtCs8Qt6rdyaNFv_7phaeton4dbusNtB5_7BusItem9get_value
FN:598,_RNvMs5_NtCs8Qt6rdyaNFv_7phaeton4dbusNtB5_7BusItem9set_value
FN:521,_RNvMs_NtCs8Qt6rdyaNFv_7phaeton4dbusNtB4_15DbusSharedState3new
FN:659,_RNvNtNtCs8Qt6rdyaNFv_7phaeton4dbus5testss_37serde_string_is_mapped_to_dbus_string
FN:555,_RNCNvMs0_NtCs8Qt6rdyaNFv_7phaeton4dbusNtB7_7BusItem20serde_to_owned_value0B9_
FN:560,_RNvMs0_NtCs8Qt6rdyaNFv_7phaeton4dbusNtB5_7BusItem20owned_value_to_serde
FN:541,_RNvMs0_NtCs8Qt6rdyaNFv_7phaeton4dbusNtB5_7BusItem20serde_to_owned_value
FNDA:0,_RNvMNtCsgT6CZGVyCTz_7phaeton4dbusNtB2_11DbusService11ensure_item
FNDA:0,_RNvMNtCsgT6CZGVyCTz_7phaeton4dbusNtB2_11DbusService11update_path
FNDA:0,_RNvMNtCsgT6CZGVyCTz_7phaeton4dbusNtB2_11DbusService12request_name
FNDA:0,_RNvMNtCsgT6CZGVyCTz_7phaeton4dbusNtB2_11DbusService3get
FNDA:0,_RNvMNtCsgT6CZGVyCTz_7phaeton4dbusNtB2_11DbusService3new
FNDA:0,_RNvMNtCsgT6CZGVyCTz_7phaeton4dbusNtB2_11DbusService4stop
FNDA:0,_RNvMNtCsgT6CZGVyCTz_7phaeton4dbusNtB2_11DbusService5start
FNDA:0,_RNvMs0_NtCsgT6CZGVyCTz_7phaeton4dbusNtB5_7BusItem20owned_value_to_serde
FNDA:0,_RNvMs0_NtCsgT6CZGVyCTz_7phaeton4dbusNtB5_7BusItem20serde_to_owned_value
FNDA:0,_RNvMs0_NtCsgT6CZGVyCTz_7phaeton4dbusNtB5_7BusItem3new
FNDA:0,_RNvMs2_NtCsgT6CZGVyCTz_7phaeton4dbusNtB5_9EvCharger10ac_current
FNDA:0,_RNvMs2_NtCsgT6CZGVyCTz_7phaeton4dbusNtB5_9EvCharger10start_stop
FNDA:0,_RNvMs2_NtCsgT6CZGVyCTz_7phaeton4dbusNtB5_9EvCharger11ac_l1_power
FNDA:0,_RNvMs2_NtCsgT6CZGVyCTz_7phaeton4dbusNtB5_9EvCharger11ac_l2_power
FNDA:0,_RNvMs2_NtCsgT6CZGVyCTz_7phaeton4dbusNtB5_9EvCharger11ac_l3_power
FNDA:0,_RNvMs2_NtCsgT6CZGVyCTz_7phaeton4dbusNtB5_9EvCharger11set_current
FNDA:0,_RNvMs2_NtCsgT6CZGVyCTz_7phaeton4dbusNtB5_9EvCharger12product_name
FNDA:0,_RNvMs2_NtCsgT6CZGVyCTz_7phaeton4dbusNtB5_9EvCharger13ac_l1_current
FNDA:0,_RNvMs2_NtCsgT6CZGVyCTz_7phaeton4dbusNtB5_9EvCharger13ac_l1_voltage
FNDA:0,_RNvMs2_NtCsgT6CZGVyCTz_7phaeton4dbusNtB5_9EvCharger13ac_l2_current
FNDA:0,_RNvMs2_NtCsgT6CZGVyCTz_7phaeton4dbusNtB5_9EvCharger13ac_l2_voltage
FNDA:0,_RNvMs2_NtCsgT6CZGVyCTz_7phaeton4dbusNtB5_9EvCharger13ac_l3_current
FNDA:0,_RNvMs2_NtCsgT6CZGVyCTz_7phaeton4dbusNtB5_9EvCharger13ac_l3_voltage
FNDA:0,_RNvMs2_NtCsgT6CZGVyCTz_7phaeton4dbusNtB5_9EvCharger13charging_time
FNDA:0,_RNvMs2_NtCsgT6CZGVyCTz_7phaeton4dbusNtB5_9EvCharger14ac_phase_count
FNDA:0,_RNvMs2_NtCsgT6CZGVyCTz_7phaeton4dbusNtB5_9EvCharger14set_start_stop
FNDA:0,_RNvMs2_NtCsgT6CZGVyCTz_7phaeton4dbusNtB5_9EvCharger15device_instance
FNDA:0,_RNvMs2_NtCsgT6CZGVyCTz_7phaeton4dbusNtB5_9EvCharger15set_set_current
FNDA:0,_RNvMs2_NtCsgT6CZGVyCTz_7phaeton4dbusNtB5_9EvCharger16firmware_version
FNDA:0,_RNvMs2_NtCsgT6CZGVyCTz_7phaeton4dbusNtB5_9EvCharger17ac_energy_forward
FNDA:0,_RNvMs2_NtCsgT6CZGVyCTz_7phaeton4dbusNtB5_9EvCharger4mode
FNDA:0,_RNvMs2_NtCsgT6CZGVyCTz_7phaeton4dbusNtB5_9EvCharger6serial
FNDA:0,_RNvMs2_NtCsgT6CZGVyCTz_7phaeton4dbusNtB5_9EvCharger6status
FNDA:0,_RNvMs2_NtCsgT6CZGVyCTz_7phaeton4dbusNtB5_9EvCharger8ac_power
FNDA:0,_RNvMs2_NtCsgT6CZGVyCTz_7phaeton4dbusNtB5_9EvCharger8set_mode
FNDA:0,_RNvMs5_NtCsgT6CZGVyCTz_7phaeton4dbusNtB5_7BusItem8get_text
FNDA:0,_RNvMs5_NtCsgT6CZGVyCTz_7phaeton4dbusNtB5_7BusItem9get_value
FNDA:0,_RNvMs5_NtCsgT6CZGVyCTz_7phaeton4dbusNtB5_7BusItem9set_value
FNDA:0,_RNvMs_NtCsgT6CZGVyCTz_7phaeton4dbusNtB4_15DbusSharedState3new
FNDA:0,_RINvMNtCsgT6CZGVyCTz_7phaeton4dbusNtB3_11DbusService12update_pathspEB5_
FNDA:0,_RNCINvMNtCsgT6CZGVyCTz_7phaeton4dbusNtB5_11DbusService12update_pathspE0B7_
FNDA:0,_RNCNCNvMNtCsgT6CZGVyCTz_7phaeton4dbusNtB6_11DbusService3new00B8_
FNDA:0,_RNCNCNvMNtCsgT6CZGVyCTz_7phaeton4dbusNtB6_11DbusService5start00B8_
FNDA:0,_RNCNCNvMNtCsgT6CZGVyCTz_7phaeton4dbusNtB6_11DbusService5start0s0_0B8_
FNDA:0,_RNCNCNvMNtCsgT6CZGVyCTz_7phaeton4dbusNtB6_11DbusService5start0s_0B8_
FNDA:0,_RNCNvMNtCsgT6CZGVyCTz_7phaeton4dbusNtB4_11DbusService12request_name0B6_
FNDA:0,_RNCNvMNtCsgT6CZGVyCTz_7phaeton4dbusNtB4_11DbusService3new0B6_
FNDA:0,_RNCNvMNtCsgT6CZGVyCTz_7phaeton4dbusNtB4_11DbusService4stop0B6_
FNDA:0,_RNCNvMNtCsgT6CZGVyCTz_7phaeton4dbusNtB4_11DbusService5start0B6_
FNDA:0,_RNCNCNvMNtCsgT6CZGVyCTz_7phaeton4dbusNtB6_11DbusService11ensure_item00B8_
FNDA:0,_RNCNCNvMNtCsgT6CZGVyCTz_7phaeton4dbusNtB6_11DbusService11ensure_item0s_0B8_
FNDA:0,_RNCNCNvMNtCsgT6CZGVyCTz_7phaeton4dbusNtB6_11DbusService11update_path00B8_
FNDA:0,_RNCNvMNtCsgT6CZGVyCTz_7phaeton4dbusNtB4_11DbusService11ensure_item0B6_
FNDA:0,_RNCNvMNtCsgT6CZGVyCTz_7phaeton4dbusNtB4_11DbusService11update_path0B6_
FNDA:0,_RNCNvMs0_NtCsgT6CZGVyCTz_7phaeton4dbusNtB7_7BusItem20serde_to_owned_value0B9_
FNDA:0,_RNCNvMs2_NtCsgT6CZGVyCTz_7phaeton4dbusNtB7_9EvCharger14set_start_stop0B9_
FNDA:0,_RNCNvMs2_NtCsgT6CZGVyCTz_7phaeton4dbusNtB7_9EvCharger15set_set_current0B9_
FNDA:0,_RNCNvMs2_NtCsgT6CZGVyCTz_7phaeton4dbusNtB7_9EvCharger8set_mode0B9_
FNDA:0,_RNCNvMs5_NtCsgT6CZGVyCTz_7phaeton4dbusNtB7_7BusItem8get_text0B9_
FNDA:0,_RNCNvMs5_NtCsgT6CZGVyCTz_7phaeton4dbusNtB7_7BusItem9get_value0B9_
FNDA:0,_RNCNvMs5_NtCsgT6CZGVyCTz_7phaeton4dbusNtB7_7BusItem9set_value0B9_
FNDA:0,_RINvMNtCsgT6CZGVyCTz_7phaeton4dbusNtB3_11DbusService12update_pathsATNtNtCsiTraAjBDcu4_5alloc6string6StringNtNtCsbQvEGqeA7WV_10serde_json5value5ValueEj5_ECs4JsBA7u6QVm_7phaeton
FNDA:0,_RINvMNtCsgT6CZGVyCTz_7phaeton4dbusNtB3_11DbusService12update_pathsINtNtCsiTraAjBDcu4_5alloc3vec3VecTNtNtB17_6string6StringNtNtCsbQvEGqeA7WV_10serde_json5value5ValueEEECs4JsBA7u6QVm_7phaeton
FNDA:0,_RNCINvMNtCsgT6CZGVyCTz_7phaeton4dbusNtB5_11DbusService12update_pathsATNtNtCsiTraAjBDcu4_5alloc6string6StringNtNtCsbQvEGqeA7WV_10serde_json5value5ValueEj5_E0Cs4JsBA7u6QVm_7phaeton
FNDA:0,_RNCINvMNtCsgT6CZGVyCTz_7phaeton4dbusNtB5_11DbusService12update_pathsINtNtCsiTraAjBDcu4_5alloc3vec3VecTNtNtB19_6string6StringNtNtCsbQvEGqeA7WV_10serde_json5value5ValueEEE0Cs4JsBA7u6QVm_7phaeton
FNDA:0,_RNCNCNvMNtCsgT6CZGVyCTz_7phaeton4dbusNtB6_11DbusService3new00Cs4JsBA7u6QVm_7phaeton
FNDA:0,_RNCNCNvMNtCsgT6CZGVyCTz_7phaeton4dbusNtB6_11DbusService5start00Cs4JsBA7u6QVm_7phaeton
FNDA:0,_RNCNCNvMNtCsgT6CZGVyCTz_7phaeton4dbusNtB6_11DbusService5start0s0_0Cs4JsBA7u6QVm_7phaeton
FNDA:0,_RNCNCNvMNtCsgT6CZGVyCTz_7phaeton4dbusNtB6_11DbusService5start0s_0Cs4JsBA7u6QVm_7phaeton
FNDA:0,_RNCNvMNtCsgT6CZGVyCTz_7phaeton4dbusNtB4_11DbusService12request_name0Cs4JsBA7u6QVm_7phaeton
FNDA:0,_RNCNvMNtCsgT6CZGVyCTz_7phaeton4dbusNtB4_11DbusService3new0Cs4JsBA7u6QVm_7phaeton
FNDA:0,_RNCNvMNtCsgT6CZGVyCTz_7phaeton4dbusNtB4_11DbusService5start0Cs4JsBA7u6QVm_7phaeton
FNDA:0,_RINvMNtCs8Qt6rdyaNFv_7phaeton4dbusNtB3_11DbusService12update_pathspEB5_
FNDA:0,_RNCINvMNtCs8Qt6rdyaNFv_7phaeton4dbusNtB5_11DbusService12update_pathspE0B7_
FNDA:0,_RNCNCNvMNtCs8Qt6rdyaNFv_7phaeton4dbusNtB6_11DbusService11ensure_item00B8_
FNDA:0,_RNCNCNvMNtCs8Qt6rdyaNFv_7phaeton4dbusNtB6_11DbusService11ensure_item0s_0B8_
FNDA:0,_RNCNCNvMNtCs8Qt6rdyaNFv_7phaeton4dbusNtB6_11DbusService11update_path00B8_
FNDA:0,_RNCNCNvMNtCs8Qt6rdyaNFv_7phaeton4dbusNtB6_11DbusService3new00B8_
FNDA:0,_RNCNCNvMNtCs8Qt6rdyaNFv_7phaeton4dbusNtB6_11DbusService5start00B8_
FNDA:0,_RNCNCNvMNtCs8Qt6rdyaNFv_7phaeton4dbusNtB6_11DbusService5start0s0_0B8_
FNDA:0,_RNCNCNvMNtCs8Qt6rdyaNFv_7phaeton4dbusNtB6_11DbusService5start0s_0B8_
FNDA:0,_RNCNvMNtCs8Qt6rdyaNFv_7phaeton4dbusNtB4_11DbusService11ensure_item0B6_
FNDA:0,_RNCNvMNtCs8Qt6rdyaNFv_7phaeton4dbusNtB4_11DbusService11update_path0B6_
FNDA:0,_RNCNvMNtCs8Qt6rdyaNFv_7phaeton4dbusNtB4_11DbusService12request_name0B6_
FNDA:0,_RNCNvMNtCs8Qt6rdyaNFv_7phaeton4dbusNtB4_11DbusService3new0B6_
FNDA:0,_RNCNvMNtCs8Qt6rdyaNFv_7phaeton4dbusNtB4_11DbusService4stop0B6_
FNDA:0,_RNCNvMNtCs8Qt6rdyaNFv_7phaeton4dbusNtB4_11DbusService5start0B6_
FNDA:0,_RNCNvMs2_NtCs8Qt6rdyaNFv_7phaeton4dbusNtB7_9EvCharger14set_start_stop0B9_
FNDA:0,_RNCNvMs2_NtCs8Qt6rdyaNFv_7phaeton4dbusNtB7_9EvCharger15set_set_current0B9_
FNDA:0,_RNCNvMs2_NtCs8Qt6rdyaNFv_7phaeton4dbusNtB7_9EvCharger8set_mode0B9_
FNDA:0,_RNCNvMs5_NtCs8Qt6rdyaNFv_7phaeton4dbusNtB7_7BusItem8get_text0B9_
FNDA:0,_RNCNvMs5_NtCs8Qt6rdyaNFv_7phaeton4dbusNtB7_7BusItem9get_value0B9_
FNDA:0,_RNCNvMs5_NtCs8Qt6rdyaNFv_7phaeton4dbusNtB7_7BusItem9set_value0B9_
FNDA:0,_RNvMNtCs8Qt6rdyaNFv_7phaeton4dbusNtB2_11DbusService11ensure_item
FNDA:0,_RNvMNtCs8Qt6rdyaNFv_7phaeton4dbusNtB2_11DbusService11update_path
FNDA:0,_RNvMNtCs8Qt6rdyaNFv_7phaeton4dbusNtB2_11DbusService12request_name
FNDA:0,_RNvMNtCs8Qt6rdyaNFv_7phaeton4dbusNtB2_11DbusService3get
FNDA:0,_RNvMNtCs8Qt6rdyaNFv_7phaeton4dbusNtB2_11DbusService3new
FNDA:0,_RNvMNtCs8Qt6rdyaNFv_7phaeton4dbusNtB2_11DbusService4stop
FNDA:0,_RNvMNtCs8Qt6rdyaNFv_7phaeton4dbusNtB2_11DbusService5start
FNDA:0,_RNvMs0_NtCs8Qt6rdyaNFv_7phaeton4dbusNtB5_7BusItem3new
FNDA:0,_RNvMs2_NtCs8Qt6rdyaNFv_7phaeton4dbusNtB5_9EvCharger10ac_current
FNDA:0,_RNvMs2_NtCs8Qt6rdyaNFv_7phaeton4dbusNtB5_9EvCharger10start_stop
FNDA:0,_RNvMs2_NtCs8Qt6rdyaNFv_7phaeton4dbusNtB5_9EvCharger11ac_l1_power
FNDA:0,_RNvMs2_NtCs8Qt6rdyaNFv_7phaeton4dbusNtB5_9EvCharger11ac_l2_power
FNDA:0,_RNvMs2_NtCs8Qt6rdyaNFv_7phaeton4dbusNtB5_9EvCharger11ac_l3_power
FNDA:0,_RNvMs2_NtCs8Qt6rdyaNFv_7phaeton4dbusNtB5_9EvCharger11set_current
FNDA:0,_RNvMs2_NtCs8Qt6rdyaNFv_7phaeton4dbusNtB5_9EvCharger12product_name
FNDA:0,_RNvMs2_NtCs8Qt6rdyaNFv_7phaeton4dbusNtB5_9EvCharger13ac_l1_current
FNDA:0,_RNvMs2_NtCs8Qt6rdyaNFv_7phaeton4dbusNtB5_9EvCharger13ac_l1_voltage
FNDA:0,_RNvMs2_NtCs8Qt6rdyaNFv_7phaeton4dbusNtB5_9EvCharger13ac_l2_current
FNDA:0,_RNvMs2_NtCs8Qt6rdyaNFv_7phaeton4dbusNtB5_9EvCharger13ac_l2_voltage
FNDA:0,_RNvMs2_NtCs8Qt6rdyaNFv_7phaeton4dbusNtB5_9EvCharger13ac_l3_current
FNDA:0,_RNvMs2_NtCs8Qt6rdyaNFv_7phaeton4dbusNtB5_9EvCharger13ac_l3_voltage
FNDA:0,_RNvMs2_NtCs8Qt6rdyaNFv_7phaeton4dbusNtB5_9EvCharger13charging_time
FNDA:0,_RNvMs2_NtCs8Qt6rdyaNFv_7phaeton4dbusNtB5_9EvCharger14ac_phase_count
FNDA:0,_RNvMs2_NtCs8Qt6rdyaNFv_7phaeton4dbusNtB5_9EvCharger14set_start_stop
FNDA:0,_RNvMs2_NtCs8Qt6rdyaNFv_7phaeton4dbusNtB5_9EvCharger15device_instance
FNDA:0,_RNvMs2_NtCs8Qt6rdyaNFv_7phaeton4dbusNtB5_9EvCharger15set_set_current
FNDA:0,_RNvMs2_NtCs8Qt6rdyaNFv_7phaeton4dbusNtB5_9EvCharger16firmware_version
FNDA:0,_RNvMs2_NtCs8Qt6rdyaNFv_7phaeton4dbusNtB5_9EvCharger17ac_energy_forward
FNDA:0,_RNvMs2_NtCs8Qt6rdyaNFv_7phaeton4dbusNtB5_9EvCharger4mode
FNDA:0,_RNvMs2_NtCs8Qt6rdyaNFv_7phaeton4dbusNtB5_9EvCharger6serial
FNDA:0,_RNvMs2_NtCs8Qt6rdyaNFv_7phaeton4dbusNtB5_9EvCharger6status
FNDA:0,_RNvMs2_NtCs8Qt6rdyaNFv_7phaeton4dbusNtB5_9EvCharger8ac_power
FNDA:0,_RNvMs2_NtCs8Qt6rdyaNFv_7phaeton4dbusNtB5_9EvCharger8set_mode
FNDA:0,_RNvMs5_NtCs8Qt6rdyaNFv_7phaeton4dbusNtB5_7BusItem8get_text
FNDA:0,_RNvMs5_NtCs8Qt6rdyaNFv_7phaeton4dbusNtB5_7BusItem9get_value
FNDA:0,_RNvMs5_NtCs8Qt6rdyaNFv_7phaeton4dbusNtB5_7BusItem9set_value
FNDA:0,_RNvMs_NtCs8Qt6rdyaNFv_7phaeton4dbusNtB4_15DbusSharedState3new
FNDA:1,_RNvNtNtCs8Qt6rdyaNFv_7phaeton4dbus5testss_37serde_string_is_mapped_to_dbus_string
FNDA:0,_RNCNvMs0_NtCs8Qt6rdyaNFv_7phaeton4dbusNtB7_7BusItem20serde_to_owned_value0B9_
FNDA:1,_RNvMs0_NtCs8Qt6rdyaNFv_7phaeton4dbusNtB5_7BusItem20owned_value_to_serde
FNDA:1,_RNvMs0_NtCs8Qt6rdyaNFv_7phaeton4dbusNtB5_7BusItem20serde_to_owned_value
FNF:62
FNH:3
DA:55,0
DA:56,0
DA:57,0
DA:60,0
DA:61,0
DA:62,0
DA:65,0
DA:66,0
DA:67,0
DA:70,0
DA:71,0
DA:72,0
DA:75,0
DA:76,0
DA:77,0
DA:80,0
DA:81,0
DA:82,0
DA:85,0
DA:86,0
DA:87,0
DA:90,0
DA:91,0
DA:92,0
DA:95,0
DA:96,0
DA:97,0
DA:100,0
DA:101,0
DA:102,0
DA:105,0
DA:106,0
DA:107,0
DA:110,0
DA:111,0
DA:112,0
DA:114,0
DA:115,0
DA:116,0
DA:118,0
DA:119,0
DA:120,0
DA:123,0
DA:124,0
DA:125,0
DA:127,0
DA:128,0
DA:129,0
DA:131,0
DA:132,0
DA:133,0
DA:136,0
DA:137,0
DA:138,0
DA:140,0
DA:141,0
DA:142,0
DA:144,0
DA:145,0
DA:146,0
DA:149,0
DA:150,0
DA:151,0
DA:154,0
DA:155,0
DA:156,0
DA:160,0
DA:161,0
DA:162,0
DA:163,0
DA:164,0
DA:167,0
DA:168,0
DA:169,0
DA:170,0
DA:171,0
DA:174,0
DA:175,0
DA:176,0
DA:177,0
DA:178,0
DA:196,0
DA:197,0
DA:198,0
DA:199,0
DA:200,0
DA:201,0
DA:204,0
DA:206,0
DA:207,0
DA:209,0
DA:210,0
DA:211,0
DA:212,0
DA:213,0
DA:214,0
DA:215,0
DA:216,0
DA:217,0
DA:218,0
DA:221,0
DA:223,0
DA:224,0
DA:225,0
DA:226,0
DA:227,0
DA:231,0
DA:232,0
DA:233,0
DA:235,0
DA:236,0
DA:239,0
DA:240,0
DA:241,0
DA:242,0
DA:243,0
DA:244,0
DA:245,0
DA:246,0
DA:247,0
DA:248,0
DA:249,0
DA:250,0
DA:251,0
DA:252,0
DA:253,0
DA:254,0
DA:255,0
DA:256,0
DA:257,0
DA:260,0
DA:261,0
DA:262,0
DA:263,0
DA:264,0
DA:265,0
DA:266,0
DA:267,0
DA:268,0
DA:269,0
DA:270,0
DA:271,0
DA:274,0
DA:275,0
DA:276,0
DA:277,0
DA:278,0
DA:281,0
DA:282,0
DA:283,0
DA:284,0
DA:285,0
DA:286,0
DA:288,0
DA:289,0
DA:290,0
DA:291,0
DA:293,0
DA:295,0
DA:296,0
DA:297,0
DA:298,0
DA:299,0
DA:300,0
DA:301,0
DA:302,0
DA:304,0
DA:305,0
DA:309,0
DA:310,0
DA:311,0
DA:312,0
DA:313,0
DA:314,0
DA:315,0
DA:318,0
DA:319,0
DA:322,0
DA:323,0
DA:325,0
DA:328,0
DA:329,0
DA:330,0
DA:331,0
DA:334,0
DA:335,0
DA:336,0
DA:337,0
DA:338,0
DA:339,0
DA:341,0
DA:342,0
DA:343,0
DA:344,0
DA:345,0
DA:346,0
DA:348,0
DA:349,0
DA:350,0
DA:351,0
DA:352,0
DA:354,0
DA:355,0
DA:356,0
DA:357,0
DA:358,0
DA:360,0
DA:361,0
DA:362,0
DA:363,0
DA:364,0
DA:366,0
DA:367,0
DA:368,0
DA:369,0
DA:370,0
DA:372,0
DA:373,0
DA:374,0
DA:375,0
DA:376,0
DA:378,0
DA:379,0
DA:380,0
DA:381,0
DA:382,0
DA:384,0
DA:385,0
DA:386,0
DA:387,0
DA:388,0
DA:390,0
DA:391,0
DA:392,0
DA:393,0
DA:394,0
DA:396,0
DA:397,0
DA:398,0
DA:399,0
DA:400,0
DA:402,0
DA:403,0
DA:404,0
DA:405,0
DA:406,0
DA:408,0
DA:409,0
DA:410,0
DA:411,0
DA:412,0
DA:414,0
DA:415,0
DA:416,0
DA:417,0
DA:418,0
DA:420,0
DA:421,0
DA:422,0
DA:423,0
DA:424,0
DA:426,0
DA:427,0
DA:428,0
DA:429,0
DA:430,0
DA:432,0
DA:433,0
DA:434,0
DA:435,0
DA:436,0
DA:438,0
DA:439,0
DA:440,0
DA:441,0
DA:442,0
DA:444,0
DA:445,0
DA:446,0
DA:447,0
DA:448,0
DA:450,0
DA:451,0
DA:452,0
DA:453,0
DA:454,0
DA:456,0
DA:457,0
DA:458,0
DA:459,0
DA:460,0
DA:462,0
DA:463,0
DA:464,0
DA:465,0
DA:466,0
DA:468,0
DA:469,0
DA:470,0
DA:471,0
DA:472,0
DA:473,0
DA:474,0
DA:475,0
DA:477,0
DA:479,0
DA:480,0
DA:481,0
DA:484,0
DA:485,0
DA:486,0
DA:487,0
DA:488,0
DA:489,0
DA:491,0
DA:492,0
DA:495,0
DA:496,0
DA:497,0
DA:498,0
DA:502,0
DA:504,0
DA:505,0
DA:506,0
DA:507,0
DA:508,0
DA:509,0
DA:510,0
DA:521,0
DA:522,0
DA:523,0
DA:524,0
DA:525,0
DA:526,0
DA:527,0
DA:537,0
DA:538,0
DA:539,0
DA:541,1
DA:542,1
DA:543,0
DA:544,0
DA:545,0
DA:546,0
DA:547,0
DA:548,0
DA:549,0
DA:551,0
DA:554,1
DA:555,1
DA:556,0
DA:558,1
DA:560,1
DA:561,1
DA:562,0
DA:563,1
DA:564,1
DA:565,0
DA:566,1
DA:567,1
DA:568,0
DA:569,1
DA:570,1
DA:571,0
DA:572,1
DA:573,1
DA:574,1
DA:575,0
DA:576,0
DA:577,1
DA:584,0
DA:585,0
DA:586,0
DA:587,0
DA:588,0
DA:589,0
DA:590,0
DA:591,0
DA:593,0
DA:594,0
DA:598,0
DA:599,0
DA:600,0
DA:601,0
DA:602,0
DA:604,0
DA:606,0
DA:609,0
DA:610,0
DA:611,0
DA:612,0
DA:613,0
DA:614,0
DA:615,0
DA:616,0
DA:617,0
DA:618,0
DA:619,0
DA:620,0
DA:621,0
DA:622,0
DA:625,0
DA:626,0
DA:630,0
DA:631,0
DA:632,0
DA:633,0
DA:634,0
DA:635,0
DA:636,0
DA:637,0
DA:639,0
DA:640,0
DA:641,0
DA:642,0
DA:644,0
DA:647,0
DA:648,0
DA:649,0
DA:651,0
DA:659,1
DA:660,1
DA:661,1
DA:664,1
DA:665,1
DA:666,1
BRF:0
BRH:0
LF:449
LH:23
end_of_record
SF:/Users/ron/Git/phaeton/src/driver.rs
FN:764,_RNCNvMNtCsgT6CZGVyCTz_7phaeton6driverNtB4_11AlfenDriver12get_db_value0B6_
FN:840,_RNCNvMs0_NtCsgT6CZGVyCTz_7phaeton6driverNtB7_11AlfenDriver14set_start_stop0B9_
FN:855,_RNCNvMs0_NtCsgT6CZGVyCTz_7phaeton6driverNtB7_11AlfenDriver20set_intended_current0B9_
FN:827,_RNCNvMs0_NtCsgT6CZGVyCTz_7phaeton6driverNtB7_11AlfenDriver8set_mode0B9_
FN:410,_RNvMNtCsgT6CZGVyCTz_7phaeton6driverNtB2_11AlfenDriver10poll_cycle
FN:763,_RNvMNtCsgT6CZGVyCTz_7phaeton6driverNtB2_11AlfenDriver12get_db_value
FN:740,_RNvMNtCsgT6CZGVyCTz_7phaeton6driverNtB2_11AlfenDriver13update_config
FN:751,_RNvMNtCsgT6CZGVyCTz_7phaeton6driverNtB2_11AlfenDriver15start_stop_code
FN:730,_RNvMNtCsgT6CZGVyCTz_7phaeton6driverNtB2_11AlfenDriver16request_shutdown
FN:797,_RNvMNtCsgT6CZGVyCTz_7phaeton6driverNtB2_11AlfenDriver16subscribe_status
FN:747,_RNvMNtCsgT6CZGVyCTz_7phaeton6driverNtB2_11AlfenDriver17current_mode_code
FN:397,_RNvMNtCsgT6CZGVyCTz_7phaeton6driverNtB2_11AlfenDriver17initialize_modbus
FN:792,_RNvMNtCsgT6CZGVyCTz_7phaeton6driverNtB2_11AlfenDriver17sessions_snapshot
FN:768,_RNvMNtCsgT6CZGVyCTz_7phaeton6driverNtB2_11AlfenDriver23get_dbus_cache_snapshot
FN:759,_RNvMNtCsgT6CZGVyCTz_7phaeton6driverNtB2_11AlfenDriver23get_station_max_current
FN:755,_RNvMNtCsgT6CZGVyCTz_7phaeton6driverNtB2_11AlfenDriver24get_intended_set_current
FN:94,_RNvMNtCsgT6CZGVyCTz_7phaeton6driverNtB2_11AlfenDriver3new
FN:177,_RNvMNtCsgT6CZGVyCTz_7phaeton6driverNtB2_11AlfenDriver3run
FN:735,_RNvMNtCsgT6CZGVyCTz_7phaeton6driverNtB2_11AlfenDriver6config
FN:712,_RNvMNtCsgT6CZGVyCTz_7phaeton6driverNtB2_11AlfenDriver8shutdown
FN:725,_RNvMNtCsgT6CZGVyCTz_7phaeton6driverNtB2_11AlfenDriver9get_state
FN:840,_RNvMs0_NtCsgT6CZGVyCTz_7phaeton6driverNtB5_11AlfenDriver14set_start_stop
FN:855,_RNvMs0_NtCsgT6CZGVyCTz_7phaeton6driverNtB5_11AlfenDriver20set_intended_current
FN:827,_RNvMs0_NtCsgT6CZGVyCTz_7phaeton6driverNtB5_11AlfenDriver8set_mode
FN:804,_RNvMs_NtCsgT6CZGVyCTz_7phaeton6driverNtB4_11AlfenDriver14handle_command
FN:814,_RNvMs_NtCsgT6CZGVyCTz_7phaeton6driverNtB4_11AlfenDriver27map_alfen_status_to_victron
FN:427,_RNCNCNCNvMNtCsgT6CZGVyCTz_7phaeton6driverNtB8_11AlfenDriver10poll_cycle000Ba_
FN:451,_RNCNCNCNvMNtCsgT6CZGVyCTz_7phaeton6driverNtB8_11AlfenDriver10poll_cycle0s0_00Ba_
FN:463,_RNCNCNCNvMNtCsgT6CZGVyCTz_7phaeton6driverNtB8_11AlfenDriver10poll_cycle0s1_00Ba_
FN:475,_RNCNCNCNvMNtCsgT6CZGVyCTz_7phaeton6driverNtB8_11AlfenDriver10poll_cycle0s2_00Ba_
FN:487,_RNCNCNCNvMNtCsgT6CZGVyCTz_7phaeton6driverNtB8_11AlfenDriver10poll_cycle0s3_00Ba_
FN:575,_RNCNCNCNvMNtCsgT6CZGVyCTz_7phaeton6driverNtB8_11AlfenDriver10poll_cycle0s4_00Ba_
FN:439,_RNCNCNCNvMNtCsgT6CZGVyCTz_7phaeton6driverNtB8_11AlfenDriver10poll_cycle0s_00Ba_
FN:426,_RNCNCNvMNtCsgT6CZGVyCTz_7phaeton6driverNtB6_11AlfenDriver10poll_cycle00B8_
FN:450,_RNCNCNvMNtCsgT6CZGVyCTz_7phaeton6driverNtB6_11AlfenDriver10poll_cycle0s0_0B8_
FN:462,_RNCNCNvMNtCsgT6CZGVyCTz_7phaeton6driverNtB6_11AlfenDriver10poll_cycle0s1_0B8_
FN:474,_RNCNCNvMNtCsgT6CZGVyCTz_7phaeton6driverNtB6_11AlfenDriver10poll_cycle0s2_0B8_
FN:486,_RNCNCNvMNtCsgT6CZGVyCTz_7phaeton6driverNtB6_11AlfenDriver10poll_cycle0s3_0B8_
FN:573,_RNCNCNvMNtCsgT6CZGVyCTz_7phaeton6driverNtB6_11AlfenDriver10poll_cycle0s4_0B8_
FN:645,_RNCNCNvMNtCsgT6CZGVyCTz_7phaeton6driverNtB6_11AlfenDriver10poll_cycle0s5_0B8_
FN:665,_RNCNCNvMNtCsgT6CZGVyCTz_7phaeton6driverNtB6_11AlfenDriver10poll_cycle0s6_0B8_
FN:670,_RNCNCNvMNtCsgT6CZGVyCTz_7phaeton6driverNtB6_11AlfenDriver10poll_cycle0s7_0B8_
FN:671,_RNCNCNvMNtCsgT6CZGVyCTz_7phaeton6driverNtB6_11AlfenDriver10poll_cycle0s8_0B8_
FN:700,_RNCNCNvMNtCsgT6CZGVyCTz_7phaeton6driverNtB6_11AlfenDriver10poll_cycle0s9_0B8_
FN:438,_RNCNCNvMNtCsgT6CZGVyCTz_7phaeton6driverNtB6_11AlfenDriver10poll_cycle0s_0B8_
FN:98,_RNCNCNvMNtCsgT6CZGVyCTz_7phaeton6driverNtB6_11AlfenDriver3new00B8_
FN:410,_RNCNvMNtCsgT6CZGVyCTz_7phaeton6driverNtB4_11AlfenDriver10poll_cycle0B6_
FN:397,_RNCNvMNtCsgT6CZGVyCTz_7phaeton6driverNtB4_11AlfenDriver17initialize_modbus0B6_
FN:97,_RNCNvMNtCsgT6CZGVyCTz_7phaeton6driverNtB4_11AlfenDriver3new0B6_
FN:177,_RNCNvMNtCsgT6CZGVyCTz_7phaeton6driverNtB4_11AlfenDriver3run0B6_
FN:712,_RNCNvMNtCsgT6CZGVyCTz_7phaeton6driverNtB4_11AlfenDriver8shutdown0B6_
FN:804,_RNCNvMs_NtCsgT6CZGVyCTz_7phaeton6driverNtB6_11AlfenDriver14handle_command0B8_
FN:427,_RNCNCNCNvMNtCsgT6CZGVyCTz_7phaeton6driverNtB8_11AlfenDriver10poll_cycle000Cs4JsBA7u6QVm_7phaeton
FN:451,_RNCNCNCNvMNtCsgT6CZGVyCTz_7phaeton6driverNtB8_11AlfenDriver10poll_cycle0s0_00Cs4JsBA7u6QVm_7phaeton
FN:463,_RNCNCNCNvMNtCsgT6CZGVyCTz_7phaeton6driverNtB8_11AlfenDriver10poll_cycle0s1_00Cs4JsBA7u6QVm_7phaeton
FN:475,_RNCNCNCNvMNtCsgT6CZGVyCTz_7phaeton6driverNtB8_11AlfenDriver10poll_cycle0s2_00Cs4JsBA7u6QVm_7phaeton
FN:487,_RNCNCNCNvMNtCsgT6CZGVyCTz_7phaeton6driverNtB8_11AlfenDriver10poll_cycle0s3_00Cs4JsBA7u6QVm_7phaeton
FN:575,_RNCNCNCNvMNtCsgT6CZGVyCTz_7phaeton6driverNtB8_11AlfenDriver10poll_cycle0s4_00Cs4JsBA7u6QVm_7phaeton
FN:439,_RNCNCNCNvMNtCsgT6CZGVyCTz_7phaeton6driverNtB8_11AlfenDriver10poll_cycle0s_00Cs4JsBA7u6QVm_7phaeton
FN:426,_RNCNCNvMNtCsgT6CZGVyCTz_7phaeton6driverNtB6_11AlfenDriver10poll_cycle00Cs4JsBA7u6QVm_7phaeton
FN:450,_RNCNCNvMNtCsgT6CZGVyCTz_7phaeton6driverNtB6_11AlfenDriver10poll_cycle0s0_0Cs4JsBA7u6QVm_7phaeton
FN:462,_RNCNCNvMNtCsgT6CZGVyCTz_7phaeton6driverNtB6_11AlfenDriver10poll_cycle0s1_0Cs4JsBA7u6QVm_7phaeton
FN:474,_RNCNCNvMNtCsgT6CZGVyCTz_7phaeton6driverNtB6_11AlfenDriver10poll_cycle0s2_0Cs4JsBA7u6QVm_7phaeton
FN:486,_RNCNCNvMNtCsgT6CZGVyCTz_7phaeton6driverNtB6_11AlfenDriver10poll_cycle0s3_0Cs4JsBA7u6QVm_7phaeton
FN:573,_RNCNCNvMNtCsgT6CZGVyCTz_7phaeton6driverNtB6_11AlfenDriver10poll_cycle0s4_0Cs4JsBA7u6QVm_7phaeton
FN:645,_RNCNCNvMNtCsgT6CZGVyCTz_7phaeton6driverNtB6_11AlfenDriver10poll_cycle0s5_0Cs4JsBA7u6QVm_7phaeton
FN:665,_RNCNCNvMNtCsgT6CZGVyCTz_7phaeton6driverNtB6_11AlfenDriver10poll_cycle0s6_0Cs4JsBA7u6QVm_7phaeton
FN:670,_RNCNCNvMNtCsgT6CZGVyCTz_7phaeton6driverNtB6_11AlfenDriver10poll_cycle0s7_0Cs4JsBA7u6QVm_7phaeton
FN:671,_RNCNCNvMNtCsgT6CZGVyCTz_7phaeton6driverNtB6_11AlfenDriver10poll_cycle0s8_0Cs4JsBA7u6QVm_7phaeton
FN:700,_RNCNCNvMNtCsgT6CZGVyCTz_7phaeton6driverNtB6_11AlfenDriver10poll_cycle0s9_0Cs4JsBA7u6QVm_7phaeton
FN:438,_RNCNCNvMNtCsgT6CZGVyCTz_7phaeton6driverNtB6_11AlfenDriver10poll_cycle0s_0Cs4JsBA7u6QVm_7phaeton
FN:98,_RNCNCNvMNtCsgT6CZGVyCTz_7phaeton6driverNtB6_11AlfenDriver3new00Cs4JsBA7u6QVm_7phaeton
FN:410,_RNCNvMNtCsgT6CZGVyCTz_7phaeton6driverNtB4_11AlfenDriver10poll_cycle0Cs4JsBA7u6QVm_7phaeton
FN:397,_RNCNvMNtCsgT6CZGVyCTz_7phaeton6driverNtB4_11AlfenDriver17initialize_modbus0Cs4JsBA7u6QVm_7phaeton
FN:97,_RNCNvMNtCsgT6CZGVyCTz_7phaeton6driverNtB4_11AlfenDriver3new0Cs4JsBA7u6QVm_7phaeton
FN:177,_RNCNvMNtCsgT6CZGVyCTz_7phaeton6driverNtB4_11AlfenDriver3run0Cs4JsBA7u6QVm_7phaeton
FN:712,_RNCNvMNtCsgT6CZGVyCTz_7phaeton6driverNtB4_11AlfenDriver8shutdown0Cs4JsBA7u6QVm_7phaeton
FN:804,_RNCNvMs_NtCsgT6CZGVyCTz_7phaeton6driverNtB6_11AlfenDriver14handle_command0Cs4JsBA7u6QVm_7phaeton
FN:427,_RNCNCNCNvMNtCs8Qt6rdyaNFv_7phaeton6driverNtB8_11AlfenDriver10poll_cycle000Ba_
FN:451,_RNCNCNCNvMNtCs8Qt6rdyaNFv_7phaeton6driverNtB8_11AlfenDriver10poll_cycle0s0_00Ba_
FN:463,_RNCNCNCNvMNtCs8Qt6rdyaNFv_7phaeton6driverNtB8_11AlfenDriver10poll_cycle0s1_00Ba_
FN:475,_RNCNCNCNvMNtCs8Qt6rdyaNFv_7phaeton6driverNtB8_11AlfenDriver10poll_cycle0s2_00Ba_
FN:487,_RNCNCNCNvMNtCs8Qt6rdyaNFv_7phaeton6driverNtB8_11AlfenDriver10poll_cycle0s3_00Ba_
FN:575,_RNCNCNCNvMNtCs8Qt6rdyaNFv_7phaeton6driverNtB8_11AlfenDriver10poll_cycle0s4_00Ba_
FN:439,_RNCNCNCNvMNtCs8Qt6rdyaNFv_7phaeton6driverNtB8_11AlfenDriver10poll_cycle0s_00Ba_
FN:426,_RNCNCNvMNtCs8Qt6rdyaNFv_7phaeton6driverNtB6_11AlfenDriver10poll_cycle00B8_
FN:450,_RNCNCNvMNtCs8Qt6rdyaNFv_7phaeton6driverNtB6_11AlfenDriver10poll_cycle0s0_0B8_
FN:462,_RNCNCNvMNtCs8Qt6rdyaNFv_7phaeton6driverNtB6_11AlfenDriver10poll_cycle0s1_0B8_
FN:474,_RNCNCNvMNtCs8Qt6rdyaNFv_7phaeton6driverNtB6_11AlfenDriver10poll_cycle0s2_0B8_
FN:486,_RNCNCNvMNtCs8Qt6rdyaNFv_7phaeton6driverNtB6_11AlfenDriver10poll_cycle0s3_0B8_
FN:573,_RNCNCNvMNtCs8Qt6rdyaNFv_7phaeton6driverNtB6_11AlfenDriver10poll_cycle0s4_0B8_
FN:645,_RNCNCNvMNtCs8Qt6rdyaNFv_7phaeton6driverNtB6_11AlfenDriver10poll_cycle0s5_0B8_
FN:665,_RNCNCNvMNtCs8Qt6rdyaNFv_7phaeton6driverNtB6_11AlfenDriver10poll_cycle0s6_0B8_
FN:670,_RNCNCNvMNtCs8Qt6rdyaNFv_7phaeton6driverNtB6_11AlfenDriver10poll_cycle0s7_0B8_
FN:671,_RNCNCNvMNtCs8Qt6rdyaNFv_7phaeton6driverNtB6_11AlfenDriver10poll_cycle0s8_0B8_
FN:700,_RNCNCNvMNtCs8Qt6rdyaNFv_7phaeton6driverNtB6_11AlfenDriver10poll_cycle0s9_0B8_
FN:438,_RNCNCNvMNtCs8Qt6rdyaNFv_7phaeton6driverNtB6_11AlfenDriver10poll_cycle0s_0B8_
FN:98,_RNCNCNvMNtCs8Qt6rdyaNFv_7phaeton6driverNtB6_11AlfenDriver3new00B8_
FN:410,_RNCNvMNtCs8Qt6rdyaNFv_7phaeton6driverNtB4_11AlfenDriver10poll_cycle0B6_
FN:764,_RNCNvMNtCs8Qt6rdyaNFv_7phaeton6driverNtB4_11AlfenDriver12get_db_value0B6_
FN:397,_RNCNvMNtCs8Qt6rdyaNFv_7phaeton6driverNtB4_11AlfenDriver17initialize_modbus0B6_
FN:97,_RNCNvMNtCs8Qt6rdyaNFv_7phaeton6driverNtB4_11AlfenDriver3new0B6_
FN:177,_RNCNvMNtCs8Qt6rdyaNFv_7phaeton6driverNtB4_11AlfenDriver3run0B6_
FN:712,_RNCNvMNtCs8Qt6rdyaNFv_7phaeton6driverNtB4_11AlfenDriver8shutdown0B6_
FN:840,_RNCNvMs0_NtCs8Qt6rdyaNFv_7phaeton6driverNtB7_11AlfenDriver14set_start_stop0B9_
FN:855,_RNCNvMs0_NtCs8Qt6rdyaNFv_7phaeton6driverNtB7_11AlfenDriver20set_intended_current0B9_
FN:827,_RNCNvMs0_NtCs8Qt6rdyaNFv_7phaeton6driverNtB7_11AlfenDriver8set_mode0B9_
FN:804,_RNCNvMs_NtCs8Qt6rdyaNFv_7phaeton6driverNtB6_11AlfenDriver14handle_command0B8_
FN:410,_RNvMNtCs8Qt6rdyaNFv_7phaeton6driverNtB2_11AlfenDriver10poll_cycle
FN:763,_RNvMNtCs8Qt6rdyaNFv_7phaeton6driverNtB2_11AlfenDriver12get_db_value
FN:740,_RNvMNtCs8Qt6rdyaNFv_7phaeton6driverNtB2_11AlfenDriver13update_config
FN:751,_RNvMNtCs8Qt6rdyaNFv_7phaeton6driverNtB2_11AlfenDriver15start_stop_code
FN:730,_RNvMNtCs8Qt6rdyaNFv_7phaeton6driverNtB2_11AlfenDriver16request_shutdown
FN:797,_RNvMNtCs8Qt6rdyaNFv_7phaeton6driverNtB2_11AlfenDriver16subscribe_status
FN:747,_RNvMNtCs8Qt6rdyaNFv_7phaeton6driverNtB2_11AlfenDriver17current_mode_code
FN:397,_RNvMNtCs8Qt6rdyaNFv_7phaeton6driverNtB2_11AlfenDriver17initialize_modbus
FN:792,_RNvMNtCs8Qt6rdyaNFv_7phaeton6driverNtB2_11AlfenDriver17sessions_snapshot
FN:768,_RNvMNtCs8Qt6rdyaNFv_7phaeton6driverNtB2_11AlfenDriver23get_dbus_cache_snapshot
FN:759,_RNvMNtCs8Qt6rdyaNFv_7phaeton6driverNtB2_11AlfenDriver23get_station_max_current
FN:755,_RNvMNtCs8Qt6rdyaNFv_7phaeton6driverNtB2_11AlfenDriver24get_intended_set_current
FN:94,_RNvMNtCs8Qt6rdyaNFv_7phaeton6driverNtB2_11AlfenDriver3new
FN:177,_RNvMNtCs8Qt6rdyaNFv_7phaeton6driverNtB2_11AlfenDriver3run
FN:735,_RNvMNtCs8Qt6rdyaNFv_7phaeton6driverNtB2_11AlfenDriver6config
FN:712,_RNvMNtCs8Qt6rdyaNFv_7phaeton6driverNtB2_11AlfenDriver8shutdown
FN:725,_RNvMNtCs8Qt6rdyaNFv_7phaeton6driverNtB2_11AlfenDriver9get_state
FN:840,_RNvMs0_NtCs8Qt6rdyaNFv_7phaeton6driverNtB5_11AlfenDriver14set_start_stop
FN:855,_RNvMs0_NtCs8Qt6rdyaNFv_7phaeton6driverNtB5_11AlfenDriver20set_intended_current
FN:827,_RNvMs0_NtCs8Qt6rdyaNFv_7phaeton6driverNtB5_11AlfenDriver8set_mode
FN:804,_RNvMs_NtCs8Qt6rdyaNFv_7phaeton6driverNtB4_11AlfenDriver14handle_command
FN:814,_RNvMs_NtCs8Qt6rdyaNFv_7phaeton6driverNtB4_11AlfenDriver27map_alfen_status_to_victron
FNDA:0,_RNCNvMNtCsgT6CZGVyCTz_7phaeton6driverNtB4_11AlfenDriver12get_db_value0B6_
FNDA:0,_RNCNvMs0_NtCsgT6CZGVyCTz_7phaeton6driverNtB7_11AlfenDriver14set_start_stop0B9_
FNDA:0,_RNCNvMs0_NtCsgT6CZGVyCTz_7phaeton6driverNtB7_11AlfenDriver20set_intended_current0B9_
FNDA:0,_RNCNvMs0_NtCsgT6CZGVyCTz_7phaeton6driverNtB7_11AlfenDriver8set_mode0B9_
FNDA:0,_RNvMNtCsgT6CZGVyCTz_7phaeton6driverNtB2_11AlfenDriver10poll_cycle
FNDA:0,_RNvMNtCsgT6CZGVyCTz_7phaeton6driverNtB2_11AlfenDriver12get_db_value
FNDA:0,_RNvMNtCsgT6CZGVyCTz_7phaeton6driverNtB2_11AlfenDriver13update_config
FNDA:0,_RNvMNtCsgT6CZGVyCTz_7phaeton6driverNtB2_11AlfenDriver15start_stop_code
FNDA:0,_RNvMNtCsgT6CZGVyCTz_7phaeton6driverNtB2_11AlfenDriver16request_shutdown
FNDA:0,_RNvMNtCsgT6CZGVyCTz_7phaeton6driverNtB2_11AlfenDriver16subscribe_status
FNDA:0,_RNvMNtCsgT6CZGVyCTz_7phaeton6driverNtB2_11AlfenDriver17current_mode_code
FNDA:0,_RNvMNtCsgT6CZGVyCTz_7phaeton6driverNtB2_11AlfenDriver17initialize_modbus
FNDA:0,_RNvMNtCsgT6CZGVyCTz_7phaeton6driverNtB2_11AlfenDriver17sessions_snapshot
FNDA:0,_RNvMNtCsgT6CZGVyCTz_7phaeton6driverNtB2_11AlfenDriver23get_dbus_cache_snapshot
FNDA:0,_RNvMNtCsgT6CZGVyCTz_7phaeton6driverNtB2_11AlfenDriver23get_station_max_current
FNDA:0,_RNvMNtCsgT6CZGVyCTz_7phaeton6driverNtB2_11AlfenDriver24get_intended_set_current
FNDA:0,_RNvMNtCsgT6CZGVyCTz_7phaeton6driverNtB2_11AlfenDriver3new
FNDA:0,_RNvMNtCsgT6CZGVyCTz_7phaeton6driverNtB2_11AlfenDriver3run
FNDA:0,_RNvMNtCsgT6CZGVyCTz_7phaeton6driverNtB2_11AlfenDriver6config
FNDA:0,_RNvMNtCsgT6CZGVyCTz_7phaeton6driverNtB2_11AlfenDriver8shutdown
FNDA:0,_RNvMNtCsgT6CZGVyCTz_7phaeton6driverNtB2_11AlfenDriver9get_state
FNDA:0,_RNvMs0_NtCsgT6CZGVyCTz_7phaeton6driverNtB5_11AlfenDriver14set_start_stop
FNDA:0,_RNvMs0_NtCsgT6CZGVyCTz_7phaeton6driverNtB5_11AlfenDriver20set_intended_current
FNDA:0,_RNvMs0_NtCsgT6CZGVyCTz_7phaeton6driverNtB5_11AlfenDriver8set_mode
FNDA:0,_RNvMs_NtCsgT6CZGVyCTz_7phaeton6driverNtB4_11AlfenDriver14handle_command
FNDA:0,_RNvMs_NtCsgT6CZGVyCTz_7phaeton6driverNtB4_11AlfenDriver27map_alfen_status_to_victron
FNDA:0,_RNCNCNCNvMNtCsgT6CZGVyCTz_7phaeton6driverNtB8_11AlfenDriver10poll_cycle000Ba_
FNDA:0,_RNCNCNCNvMNtCsgT6CZGVyCTz_7phaeton6driverNtB8_11AlfenDriver10poll_cycle0s0_00Ba_
FNDA:0,_RNCNCNCNvMNtCsgT6CZGVyCTz_7phaeton6driverNtB8_11AlfenDriver10poll_cycle0s1_00Ba_
FNDA:0,_RNCNCNCNvMNtCsgT6CZGVyCTz_7phaeton6driverNtB8_11AlfenDriver10poll_cycle0s2_00Ba_
FNDA:0,_RNCNCNCNvMNtCsgT6CZGVyCTz_7phaeton6driverNtB8_11AlfenDriver10poll_cycle0s3_00Ba_
FNDA:0,_RNCNCNCNvMNtCsgT6CZGVyCTz_7phaeton6driverNtB8_11AlfenDriver10poll_cycle0s4_00Ba_
FNDA:0,_RNCNCNCNvMNtCsgT6CZGVyCTz_7phaeton6driverNtB8_11AlfenDriver10poll_cycle0s_00Ba_
FNDA:0,_RNCNCNvMNtCsgT6CZGVyCTz_7phaeton6driverNtB6_11AlfenDriver10poll_cycle00B8_
FNDA:0,_RNCNCNvMNtCsgT6CZGVyCTz_7phaeton6driverNtB6_11AlfenDriver10poll_cycle0s0_0B8_
FNDA:0,_RNCNCNvMNtCsgT6CZGVyCTz_7phaeton6driverNtB6_11AlfenDriver10poll_cycle0s1_0B8_
FNDA:0,_RNCNCNvMNtCsgT6CZGVyCTz_7phaeton6driverNtB6_11AlfenDriver10poll_cycle0s2_0B8_
FNDA:0,_RNCNCNvMNtCsgT6CZGVyCTz_7phaeton6driverNtB6_11AlfenDriver10poll_cycle0s3_0B8_
FNDA:0,_RNCNCNvMNtCsgT6CZGVyCTz_7phaeton6driverNtB6_11AlfenDriver10poll_cycle0s4_0B8_
FNDA:0,_RNCNCNvMNtCsgT6CZGVyCTz_7phaeton6driverNtB6_11AlfenDriver10poll_cycle0s5_0B8_
FNDA:0,_RNCNCNvMNtCsgT6CZGVyCTz_7phaeton6driverNtB6_11AlfenDriver10poll_cycle0s6_0B8_
FNDA:0,_RNCNCNvMNtCsgT6CZGVyCTz_7phaeton6driverNtB6_11AlfenDriver10poll_cycle0s7_0B8_
FNDA:0,_RNCNCNvMNtCsgT6CZGVyCTz_7phaeton6driverNtB6_11AlfenDriver10poll_cycle0s8_0B8_
FNDA:0,_RNCNCNvMNtCsgT6CZGVyCTz_7phaeton6driverNtB6_11AlfenDriver10poll_cycle0s9_0B8_
FNDA:0,_RNCNCNvMNtCsgT6CZGVyCTz_7phaeton6driverNtB6_11AlfenDriver10poll_cycle0s_0B8_
FNDA:0,_RNCNCNvMNtCsgT6CZGVyCTz_7phaeton6driverNtB6_11AlfenDriver3new00B8_
FNDA:0,_RNCNvMNtCsgT6CZGVyCTz_7phaeton6driverNtB4_11AlfenDriver10poll_cycle0B6_
FNDA:0,_RNCNvMNtCsgT6CZGVyCTz_7phaeton6driverNtB4_11AlfenDriver17initialize_modbus0B6_
FNDA:0,_RNCNvMNtCsgT6CZGVyCTz_7phaeton6driverNtB4_11AlfenDriver3new0B6_
FNDA:0,_RNCNvMNtCsgT6CZGVyCTz_7phaeton6driverNtB4_11AlfenDriver3run0B6_
FNDA:0,_RNCNvMNtCsgT6CZGVyCTz_7phaeton6driverNtB4_11AlfenDriver8shutdown0B6_
FNDA:0,_RNCNvMs_NtCsgT6CZGVyCTz_7phaeton6driverNtB6_11AlfenDriver14handle_command0B8_
FNDA:0,_RNCNCNCNvMNtCsgT6CZGVyCTz_7phaeton6driverNtB8_11AlfenDriver10poll_cycle000Cs4JsBA7u6QVm_7phaeton
FNDA:0,_RNCNCNCNvMNtCsgT6CZGVyCTz_7phaeton6driverNtB8_11AlfenDriver10poll_cycle0s0_00Cs4JsBA7u6QVm_7phaeton
FNDA:0,_RNCNCNCNvMNtCsgT6CZGVyCTz_7phaeton6driverNtB8_11AlfenDriver10poll_cycle0s1_00Cs4JsBA7u6QVm_7phaeton
FNDA:0,_RNCNCNCNvMNtCsgT6CZGVyCTz_7phaeton6driverNtB8_11AlfenDriver10poll_cycle0s2_00Cs4JsBA7u6QVm_7phaeton
FNDA:0,_RNCNCNCNvMNtCsgT6CZGVyCTz_7phaeton6driverNtB8_11AlfenDriver10poll_cycle0s3_00Cs4JsBA7u6QVm_7phaeton
FNDA:0,_RNCNCNCNvMNtCsgT6CZGVyCTz_7phaeton6driverNtB8_11AlfenDriver10poll_cycle0s4_00Cs4JsBA7u6QVm_7phaeton
FNDA:0,_RNCNCNCNvMNtCsgT6CZGVyCTz_7phaeton6driverNtB8_11AlfenDriver10poll_cycle0s_00Cs4JsBA7u6QVm_7phaeton
FNDA:0,_RNCNCNvMNtCsgT6CZGVyCTz_7phaeton6driverNtB6_11AlfenDriver10poll_cycle00Cs4JsBA7u6QVm_7phaeton
FNDA:0,_RNCNCNvMNtCsgT6CZGVyCTz_7phaeton6driverNtB6_11AlfenDriver10poll_cycle0s0_0Cs4JsBA7u6QVm_7phaeton
FNDA:0,_RNCNCNvMNtCsgT6CZGVyCTz_7phaeton6driverNtB6_11AlfenDriver10poll_cycle0s1_0Cs4JsBA7u6QVm_7phaeton
FNDA:0,_RNCNCNvMNtCsgT6CZGVyCTz_7phaeton6driverNtB6_11AlfenDriver10poll_cycle0s2_0Cs4JsBA7u6QVm_7phaeton
FNDA:0,_RNCNCNvMNtCsgT6CZGVyCTz_7phaeton6driverNtB6_11AlfenDriver10poll_cycle0s3_0Cs4JsBA7u6QVm_7phaeton
FNDA:0,_RNCNCNvMNtCsgT6CZGVyCTz_7phaeton6driverNtB6_11AlfenDriver10poll_cycle0s4_0Cs4JsBA7u6QVm_7phaeton
FNDA:0,_RNCNCNvMNtCsgT6CZGVyCTz_7phaeton6driverNtB6_11AlfenDriver10poll_cycle0s5_0Cs4JsBA7u6QVm_7phaeton
FNDA:0,_RNCNCNvMNtCsgT6CZGVyCTz_7phaeton6driverNtB6_11AlfenDriver10poll_cycle0s6_0Cs4JsBA7u6QVm_7phaeton
FNDA:0,_RNCNCNvMNtCsgT6CZGVyCTz_7phaeton6driverNtB6_11AlfenDriver10poll_cycle0s7_0Cs4JsBA7u6QVm_7phaeton
FNDA:0,_RNCNCNvMNtCsgT6CZGVyCTz_7phaeton6driverNtB6_11AlfenDriver10poll_cycle0s8_0Cs4JsBA7u6QVm_7phaeton
FNDA:0,_RNCNCNvMNtCsgT6CZGVyCTz_7phaeton6driverNtB6_11AlfenDriver10poll_cycle0s9_0Cs4JsBA7u6QVm_7phaeton
FNDA:0,_RNCNCNvMNtCsgT6CZGVyCTz_7phaeton6driverNtB6_11AlfenDriver10poll_cycle0s_0Cs4JsBA7u6QVm_7phaeton
FNDA:0,_RNCNCNvMNtCsgT6CZGVyCTz_7phaeton6driverNtB6_11AlfenDriver3new00Cs4JsBA7u6QVm_7phaeton
FNDA:0,_RNCNvMNtCsgT6CZGVyCTz_7phaeton6driverNtB4_11AlfenDriver10poll_cycle0Cs4JsBA7u6QVm_7phaeton
FNDA:0,_RNCNvMNtCsgT6CZGVyCTz_7phaeton6driverNtB4_11AlfenDriver17initialize_modbus0Cs4JsBA7u6QVm_7phaeton
FNDA:0,_RNCNvMNtCsgT6CZGVyCTz_7phaeton6driverNtB4_11AlfenDriver3new0Cs4JsBA7u6QVm_7phaeton
FNDA:0,_RNCNvMNtCsgT6CZGVyCTz_7phaeton6driverNtB4_11AlfenDriver3run0Cs4JsBA7u6QVm_7phaeton
FNDA:0,_RNCNvMNtCsgT6CZGVyCTz_7phaeton6driverNtB4_11AlfenDriver8shutdown0Cs4JsBA7u6QVm_7phaeton
FNDA:0,_RNCNvMs_NtCsgT6CZGVyCTz_7phaeton6driverNtB6_11AlfenDriver14handle_command0Cs4JsBA7u6QVm_7phaeton
FNDA:0,_RNCNCNCNvMNtCs8Qt6rdyaNFv_7phaeton6driverNtB8_11AlfenDriver10poll_cycle000Ba_
FNDA:0,_RNCNCNCNvMNtCs8Qt6rdyaNFv_7phaeton6driverNtB8_11AlfenDriver10poll_cycle0s0_00Ba_
FNDA:0,_RNCNCNCNvMNtCs8Qt6rdyaNFv_7phaeton6driverNtB8_11AlfenDriver10poll_cycle0s1_00Ba_
FNDA:0,_RNCNCNCNvMNtCs8Qt6rdyaNFv_7phaeton6driverNtB8_11AlfenDriver10poll_cycle0s2_00Ba_
FNDA:0,_RNCNCNCNvMNtCs8Qt6rdyaNFv_7phaeton6driverNtB8_11AlfenDriver10poll_cycle0s3_00Ba_
FNDA:0,_RNCNCNCNvMNtCs8Qt6rdyaNFv_7phaeton6driverNtB8_11AlfenDriver10poll_cycle0s4_00Ba_
FNDA:0,_RNCNCNCNvMNtCs8Qt6rdyaNFv_7phaeton6driverNtB8_11AlfenDriver10poll_cycle0s_00Ba_
FNDA:0,_RNCNCNvMNtCs8Qt6rdyaNFv_7phaeton6driverNtB6_11AlfenDriver10poll_cycle00B8_
FNDA:0,_RNCNCNvMNtCs8Qt6rdyaNFv_7phaeton6driverNtB6_11AlfenDriver10poll_cycle0s0_0B8_
FNDA:0,_RNCNCNvMNtCs8Qt6rdyaNFv_7phaeton6driverNtB6_11AlfenDriver10poll_cycle0s1_0B8_
FNDA:0,_RNCNCNvMNtCs8Qt6rdyaNFv_7phaeton6driverNtB6_11AlfenDriver10poll_cycle0s2_0B8_
FNDA:0,_RNCNCNvMNtCs8Qt6rdyaNFv_7phaeton6driverNtB6_11AlfenDriver10poll_cycle0s3_0B8_
FNDA:0,_RNCNCNvMNtCs8Qt6rdyaNFv_7phaeton6driverNtB6_11AlfenDriver10poll_cycle0s4_0B8_
FNDA:0,_RNCNCNvMNtCs8Qt6rdyaNFv_7phaeton6driverNtB6_11AlfenDriver10poll_cycle0s5_0B8_
FNDA:0,_RNCNCNvMNtCs8Qt6rdyaNFv_7phaeton6driverNtB6_11AlfenDriver10poll_cycle0s6_0B8_
FNDA:0,_RNCNCNvMNtCs8Qt6rdyaNFv_7phaeton6driverNtB6_11AlfenDriver10poll_cycle0s7_0B8_
FNDA:0,_RNCNCNvMNtCs8Qt6rdyaNFv_7phaeton6driverNtB6_11AlfenDriver10poll_cycle0s8_0B8_
FNDA:0,_RNCNCNvMNtCs8Qt6rdyaNFv_7phaeton6driverNtB6_11AlfenDriver10poll_cycle0s9_0B8_
FNDA:0,_RNCNCNvMNtCs8Qt6rdyaNFv_7phaeton6driverNtB6_11AlfenDriver10poll_cycle0s_0B8_
FNDA:0,_RNCNCNvMNtCs8Qt6rdyaNFv_7phaeton6driverNtB6_11AlfenDriver3new00B8_
FNDA:0,_RNCNvMNtCs8Qt6rdyaNFv_7phaeton6driverNtB4_11AlfenDriver10poll_cycle0B6_
FNDA:0,_RNCNvMNtCs8Qt6rdyaNFv_7phaeton6driverNtB4_11AlfenDriver12get_db_value0B6_
FNDA:0,_RNCNvMNtCs8Qt6rdyaNFv_7phaeton6driverNtB4_11AlfenDriver17initialize_modbus0B6_
FNDA:0,_RNCNvMNtCs8Qt6rdyaNFv_7phaeton6driverNtB4_11AlfenDriver3new0B6_
FNDA:0,_RNCNvMNtCs8Qt6rdyaNFv_7phaeton6driverNtB4_11AlfenDriver3run0B6_
FNDA:0,_RNCNvMNtCs8Qt6rdyaNFv_7phaeton6driverNtB4_11AlfenDriver8shutdown0B6_
FNDA:0,_RNCNvMs0_NtCs8Qt6rdyaNFv_7phaeton6driverNtB7_11AlfenDriver14set_start_stop0B9_
FNDA:0,_RNCNvMs0_NtCs8Qt6rdyaNFv_7phaeton6driverNtB7_11AlfenDriver20set_intended_current0B9_
FNDA:0,_RNCNvMs0_NtCs8Qt6rdyaNFv_7phaeton6driverNtB7_11AlfenDriver8set_mode0B9_
FNDA:0,_RNCNvMs_NtCs8Qt6rdyaNFv_7phaeton6driverNtB6_11AlfenDriver14handle_command0B8_
FNDA:0,_RNvMNtCs8Qt6rdyaNFv_7phaeton6driverNtB2_11AlfenDriver10poll_cycle
FNDA:0,_RNvMNtCs8Qt6rdyaNFv_7phaeton6driverNtB2_11AlfenDriver12get_db_value
FNDA:0,_RNvMNtCs8Qt6rdyaNFv_7phaeton6driverNtB2_11AlfenDriver13update_config
FNDA:0,_RNvMNtCs8Qt6rdyaNFv_7phaeton6driverNtB2_11AlfenDriver15start_stop_code
FNDA:0,_RNvMNtCs8Qt6rdyaNFv_7phaeton6driverNtB2_11AlfenDriver16request_shutdown
FNDA:0,_RNvMNtCs8Qt6rdyaNFv_7phaeton6driverNtB2_11AlfenDriver16subscribe_status
FNDA:0,_RNvMNtCs8Qt6rdyaNFv_7phaeton6driverNtB2_11AlfenDriver17current_mode_code
FNDA:0,_RNvMNtCs8Qt6rdyaNFv_7phaeton6driverNtB2_11AlfenDriver17initialize_modbus
FNDA:0,_RNvMNtCs8Qt6rdyaNFv_7phaeton6driverNtB2_11AlfenDriver17sessions_snapshot
FNDA:0,_RNvMNtCs8Qt6rdyaNFv_7phaeton6driverNtB2_11AlfenDriver23get_dbus_cache_snapshot
FNDA:0,_RNvMNtCs8Qt6rdyaNFv_7phaeton6driverNtB2_11AlfenDriver23get_station_max_current
FNDA:0,_RNvMNtCs8Qt6rdyaNFv_7phaeton6driverNtB2_11AlfenDriver24get_intended_set_current
FNDA:0,_RNvMNtCs8Qt6rdyaNFv_7phaeton6driverNtB2_11AlfenDriver3new
FNDA:0,_RNvMNtCs8Qt6rdyaNFv_7phaeton6driverNtB2_11AlfenDriver3run
FNDA:0,_RNvMNtCs8Qt6rdyaNFv_7phaeton6driverNtB2_11AlfenDriver6config
FNDA:0,_RNvMNtCs8Qt6rdyaNFv_7phaeton6driverNtB2_11AlfenDriver8shutdown
FNDA:0,_RNvMNtCs8Qt6rdyaNFv_7phaeton6driverNtB2_11AlfenDriver9get_state
FNDA:0,_RNvMs0_NtCs8Qt6rdyaNFv_7phaeton6driverNtB5_11AlfenDriver14set_start_stop
FNDA:0,_RNvMs0_NtCs8Qt6rdyaNFv_7phaeton6driverNtB5_11AlfenDriver20set_intended_current
FNDA:0,_RNvMs0_NtCs8Qt6rdyaNFv_7phaeton6driverNtB5_11AlfenDriver8set_mode
FNDA:0,_RNvMs_NtCs8Qt6rdyaNFv_7phaeton6driverNtB4_11AlfenDriver14handle_command
FNDA:0,_RNvMs_NtCs8Qt6rdyaNFv_7phaeton6driverNtB4_11AlfenDriver27map_alfen_status_to_victron
FNF:52
FNH:0
DA:94,0
DA:95,0
DA:96,0
DA:97,0
DA:98,0
DA:99,0
DA:100,0
DA:101,0
DA:104,0
DA:106,0
DA:108,0
DA:110,0
DA:111,0
DA:113,0
DA:116,0
DA:117,0
DA:120,0
DA:121,0
DA:122,0
DA:123,0
DA:126,0
DA:127,0
DA:128,0
DA:129,0
DA:130,0
DA:131,0
DA:133,0
DA:135,0
DA:136,0
DA:137,0
DA:138,0
DA:140,0
DA:142,0
DA:144,0
DA:145,0
DA:146,0
DA:147,0
DA:150,0
DA:152,0
DA:153,0
DA:154,0
DA:155,0
DA:156,0
DA:157,0
DA:158,0
DA:159,0
DA:160,0
DA:161,0
DA:162,0
DA:163,0
DA:164,0
DA:165,0
DA:166,0
DA:167,0
DA:168,0
DA:169,0
DA:170,0
DA:171,0
DA:172,0
DA:173,0
DA:174,0
DA:177,0
DA:178,0
DA:181,0
DA:184,0
DA:187,0
DA:188,0
DA:189,0
DA:190,0
DA:193,0
DA:194,0
DA:195,0
DA:197,0
DA:198,0
DA:201,0
DA:202,0
DA:203,0
DA:204,0
DA:205,0
DA:206,0
DA:207,0
DA:210,0
DA:211,0
DA:212,0
DA:213,0
DA:215,0
DA:216,0
DA:217,0
DA:218,0
DA:221,0
DA:222,0
DA:223,0
DA:224,0
DA:225,0
DA:226,0
DA:227,0
DA:228,0
DA:231,0
DA:232,0
DA:233,0
DA:234,0
DA:235,0
DA:236,0
DA:237,0
DA:238,0
DA:239,0
DA:240,0
DA:241,0
DA:242,0
DA:243,0
DA:245,0
DA:246,0
DA:247,0
DA:248,0
DA:249,0
DA:250,0
DA:251,0
DA:252,0
DA:253,0
DA:254,0
DA:257,0
DA:259,0
DA:260,0
DA:261,0
DA:262,0
DA:265,0
DA:266,0
DA:267,0
DA:268,0
DA:269,0
DA:270,0
DA:271,0
DA:272,0
DA:273,0
DA:274,0
DA:275,0
DA:276,0
DA:277,0
DA:278,0
DA:279,0
DA:280,0
DA:281,0
DA:282,0
DA:283,0
DA:284,0
DA:285,0
DA:286,0
DA:287,0
DA:288,0
DA:289,0
DA:290,0
DA:291,0
DA:292,0
DA:293,0
DA:294,0
DA:295,0
DA:296,0
DA:297,0
DA:298,0
DA:299,0
DA:300,0
DA:301,0
DA:302,0
DA:303,0
DA:304,0
DA:305,0
DA:306,0
DA:307,0
DA:308,0
DA:309,0
DA:310,0
DA:312,0
DA:313,0
DA:314,0
DA:316,0
DA:317,0
DA:318,0
DA:319,0
DA:320,0
DA:321,0
DA:322,0
DA:323,0
DA:324,0
DA:325,0
DA:326,0
DA:327,0
DA:328,0
DA:329,0
DA:330,0
DA:331,0
DA:332,0
DA:333,0
DA:334,0
DA:335,0
DA:336,0
DA:337,0
DA:338,0
DA:339,0
DA:342,0
DA:343,0
DA:344,0
DA:345,0
DA:346,0
DA:347,0
DA:348,0
DA:349,0
DA:350,0
DA:351,0
DA:352,0
DA:353,0
DA:354,0
DA:355,0
DA:356,0
DA:357,0
DA:358,0
DA:359,0
DA:360,0
DA:361,0
DA:362,0
DA:363,0
DA:364,0
DA:365,0
DA:366,0
DA:369,0
DA:372,0
DA:373,0
DA:374,0
DA:375,0
DA:376,0
DA:377,0
DA:379,0
DA:380,0
DA:382,0
DA:383,0
DA:384,0
DA:390,0
DA:391,0
DA:393,0
DA:394,0
DA:397,0
DA:398,0
DA:399,0
DA:400,0
DA:401,0
DA:404,0
DA:405,0
DA:406,0
DA:407,0
DA:410,0
DA:411,0
DA:413,0
DA:414,0
DA:415,0
DA:416,0
DA:417,0
DA:418,0
DA:419,0
DA:420,0
DA:421,0
DA:422,0
DA:425,0
DA:426,0
DA:427,0
DA:428,0
DA:429,0
DA:430,0
DA:431,0
DA:432,0
DA:433,0
DA:434,0
DA:437,0
DA:438,0
DA:439,0
DA:440,0
DA:441,0
DA:442,0
DA:443,0
DA:444,0
DA:445,0
DA:446,0
DA:449,0
DA:450,0
DA:451,0
DA:452,0
DA:453,0
DA:454,0
DA:455,0
DA:456,0
DA:457,0
DA:458,0
DA:461,0
DA:462,0
DA:463,0
DA:464,0
DA:465,0
DA:466,0
DA:467,0
DA:468,0
DA:469,0
DA:470,0
DA:473,0
DA:474,0
DA:475,0
DA:476,0
DA:477,0
DA:478,0
DA:479,0
DA:480,0
DA:481,0
DA:482,0
DA:485,0
DA:486,0
DA:487,0
DA:488,0
DA:489,0
DA:490,0
DA:491,0
DA:492,0
DA:493,0
DA:494,0
DA:495,0
DA:496,0
DA:497,0
DA:498,0
DA:499,0
DA:500,0
DA:503,0
DA:504,0
DA:505,0
DA:506,0
DA:507,0
DA:508,0
DA:509,0
DA:512,0
DA:513,0
DA:514,0
DA:515,0
DA:516,0
DA:517,0
DA:518,0
DA:521,0
DA:522,0
DA:523,0
DA:524,0
DA:525,0
DA:526,0
DA:527,0
DA:528,0
DA:531,0
DA:532,0
DA:533,0
DA:535,0
DA:537,0
DA:538,0
DA:539,0
DA:540,0
DA:542,0
DA:544,0
DA:547,0
DA:548,0
DA:549,0
DA:550,0
DA:551,0
DA:552,0
DA:553,0
DA:554,0
DA:555,0
DA:556,0
DA:557,0
DA:558,0
DA:559,0
DA:560,0
DA:561,0
DA:562,0
DA:563,0
DA:564,0
DA:566,0
DA:567,0
DA:568,0
DA:569,0
DA:570,0
DA:571,0
DA:572,0
DA:573,0
DA:574,0
DA:575,0
DA:576,0
DA:577,0
DA:578,0
DA:579,0
DA:580,0
DA:581,0
DA:582,0
DA:583,0
DA:584,0
DA:585,0
DA:586,0
DA:587,0
DA:588,0
DA:591,0
DA:592,0
DA:593,0
DA:594,0
DA:595,0
DA:597,0
DA:599,0
DA:600,0
DA:601,0
DA:602,0
DA:603,0
DA:604,0
DA:605,0
DA:606,0
DA:607,0
DA:608,0
DA:611,0
DA:614,0
DA:615,0
DA:616,0
DA:618,0
DA:619,0
DA:620,0
DA:621,0
DA:624,0
DA:625,0
DA:626,0
DA:627,0
DA:628,0
DA:629,0
DA:630,0
DA:631,0
DA:632,0
DA:633,0
DA:634,0
DA:635,0
DA:636,0
DA:637,0
DA:638,0
DA:639,0
DA:640,0
DA:642,0
DA:643,0
DA:644,0
DA:645,0
DA:646,0
DA:647,0
DA:648,0
DA:649,0
DA:650,0
DA:652,0
DA:653,0
DA:654,0
DA:655,0
DA:656,0
DA:657,0
DA:659,0
DA:660,0
DA:661,0
DA:662,0
DA:663,0
DA:664,0
DA:665,0
DA:666,0
DA:667,0
DA:668,0
DA:669,0
DA:670,0
DA:671,0
DA:672,0
DA:673,0
DA:674,0
DA:675,0
DA:676,0
DA:677,0
DA:678,0
DA:681,0
DA:682,0
DA:683,0
DA:684,0
DA:687,0
DA:688,0
DA:689,0
DA:690,0
DA:691,0
DA:692,0
DA:693,0
DA:696,0
DA:697,0
DA:698,0
DA:699,0
DA:700,0
DA:701,0
DA:702,0
DA:703,0
DA:704,0
DA:705,0
DA:707,0
DA:708,0
DA:709,0
DA:712,0
DA:713,0
DA:715,0
DA:716,0
DA:717,0
DA:718,0
DA:720,0
DA:721,0
DA:722,0
DA:725,0
DA:726,0
DA:727,0
DA:730,0
DA:731,0
DA:732,0
DA:735,0
DA:736,0
DA:737,0
DA:740,0
DA:742,0
DA:743,0
DA:744,0
DA:747,0
DA:748,0
DA:749,0
DA:751,0
DA:752,0
DA:753,0
DA:755,0
DA:756,0
DA:757,0
DA:759,0
DA:760,0
DA:761,0
DA:763,0
DA:764,0
DA:765,0
DA:768,0
DA:769,0
DA:770,0
DA:772,0
DA:773,0
DA:774,0
DA:775,0
DA:776,0
DA:777,0
DA:778,0
DA:779,0
DA:780,0
DA:781,0
DA:782,0
DA:784,0
DA:785,0
DA:786,0
DA:788,0
DA:789,0
DA:792,0
DA:793,0
DA:794,0
DA:797,0
DA:798,0
DA:799,0
DA:804,0
DA:805,0
DA:806,0
DA:807,0
DA:808,0
DA:810,0
DA:814,0
DA:815,0
DA:816,0
DA:817,0
DA:818,0
DA:819,0
DA:820,0
DA:822,0
DA:827,0
DA:828,0
DA:829,0
DA:830,0
DA:831,0
DA:833,0
DA:834,0
DA:835,0
DA:836,0
DA:837,0
DA:838,0
DA:840,0
DA:841,0
DA:842,0
DA:844,0
DA:846,0
DA:847,0
DA:848,0
DA:849,0
DA:850,0
DA:851,0
DA:852,0
DA:853,0
DA:855,0
DA:856,0
DA:857,0
DA:858,0
DA:859,0
DA:860,0
DA:861,0
DA:862,0
DA:863,0
DA:864,0
DA:865,0
BRF:0
BRH:0
LF:640
LH:0
end_of_record
SF:/Users/ron/Git/phaeton/src/error.rs
FN:90,_RINvMNtCsgT6CZGVyCTz_7phaeton5errorNtB3_12PhaetonError3webpEB5_
FN:140,_RINvMNtCsgT6CZGVyCTz_7phaeton5errorNtB3_12PhaetonError4authpEB5_
FN:126,_RINvMNtCsgT6CZGVyCTz_7phaeton5errorNtB3_12PhaetonError7timeoutpEB5_
FN:97,_RINvMNtCsgT6CZGVyCTz_7phaeton5errorNtB3_12PhaetonError10validationReEB5_
FN:105,_RINvMNtCsgT6CZGVyCTz_7phaeton5errorNtB3_12PhaetonError2ioNtNtCsiTraAjBDcu4_5alloc6string6StringEB5_
FN:119,_RINvMNtCsgT6CZGVyCTz_7phaeton5errorNtB3_12PhaetonError3apiReEB5_
FN:83,_RINvMNtCsgT6CZGVyCTz_7phaeton5errorNtB3_12PhaetonError4dbusNtNtCsiTraAjBDcu4_5alloc6string6StringEB5_
FN:69,_RINvMNtCsgT6CZGVyCTz_7phaeton5errorNtB3_12PhaetonError6configNtNtCsiTraAjBDcu4_5alloc6string6StringEB5_
FN:76,_RINvMNtCsgT6CZGVyCTz_7phaeton5errorNtB3_12PhaetonError6modbusNtNtCsiTraAjBDcu4_5alloc6string6StringEB5_
FN:76,_RINvMNtCsgT6CZGVyCTz_7phaeton5errorNtB3_12PhaetonError6modbusReEB5_
FN:133,_RINvMNtCsgT6CZGVyCTz_7phaeton5errorNtB3_12PhaetonError6updateReEB5_
FN:147,_RINvMNtCsgT6CZGVyCTz_7phaeton5errorNtB3_12PhaetonError7genericReEB5_
FN:112,_RINvMNtCsgT6CZGVyCTz_7phaeton5errorNtB3_12PhaetonError7networkNtNtCsiTraAjBDcu4_5alloc6string6StringEB5_
FN:161,_RNvXs0_NtCsgT6CZGVyCTz_7phaeton5errorNtB5_12PhaetonErrorINtNtCsaNl6UpbT7bw_4core7convert4FromNtNtCsl1gqqCBhTm2_10serde_yaml5error5ErrorE4from
FN:169,_RNvXs1_NtCsgT6CZGVyCTz_7phaeton5errorNtB5_12PhaetonErrorINtNtCsaNl6UpbT7bw_4core7convert4FromNtNtCsbQvEGqeA7WV_10serde_json5error5ErrorE4from
FN:184,_RNvXs2_NtCsgT6CZGVyCTz_7phaeton5errorNtB5_12PhaetonErrorINtNtCsaNl6UpbT7bw_4core7convert4FromNtNtCs6JhIk6we9ok_7reqwest5error5ErrorE4from
FN:197,_RNvXs3_NtCsgT6CZGVyCTz_7phaeton5errorNtB5_12PhaetonErrorINtNtCsaNl6UpbT7bw_4core7convert4FromNtNtCslrcQRJuYIgi_6config5error11ConfigErrorE4from
FN:203,_RNvXs4_NtCsgT6CZGVyCTz_7phaeton5errorNtB5_12PhaetonErrorINtNtCsaNl6UpbT7bw_4core7convert4FromNtNtCs4QtRXoo8nld_6chrono6format10ParseErrorE4from
FN:209,_RNvXs5_NtCsgT6CZGVyCTz_7phaeton5errorNtB5_12PhaetonErrorINtNtCsaNl6UpbT7bw_4core7convert4FromNtNtCsipm0DdEu4sZ_4git25error5ErrorE4from
FN:155,_RNvXs_NtCsgT6CZGVyCTz_7phaeton5errorNtB4_12PhaetonErrorINtNtCsaNl6UpbT7bw_4core7convert4FromNtNtNtCsht3nMU9UgFu_3std2io5error5ErrorE4from
FN:105,_RINvMNtCsgT6CZGVyCTz_7phaeton5errorNtB3_12PhaetonError2ioReECskc42ooh1EAH_23error_constructors_test
FN:90,_RINvMNtCsgT6CZGVyCTz_7phaeton5errorNtB3_12PhaetonError3webReECskc42ooh1EAH_23error_constructors_test
FN:140,_RINvMNtCsgT6CZGVyCTz_7phaeton5errorNtB3_12PhaetonError4authReECskc42ooh1EAH_23error_constructors_test
FN:83,_RINvMNtCsgT6CZGVyCTz_7phaeton5errorNtB3_12PhaetonError4dbusReECskc42ooh1EAH_23error_constructors_test
FN:69,_RINvMNtCsgT6CZGVyCTz_7phaeton5errorNtB3_12PhaetonError6configReECskc42ooh1EAH_23error_constructors_test
FN:112,_RINvMNtCsgT6CZGVyCTz_7phaeton5errorNtB3_12PhaetonError7networkReECskc42ooh1EAH_23error_constructors_test
FN:126,_RINvMNtCsgT6CZGVyCTz_7phaeton5errorNtB3_12PhaetonError7timeoutReECskc42ooh1EAH_23error_constructors_test
FN:126,_RINvMNtCsgT6CZGVyCTz_7phaeton5errorNtB3_12PhaetonError7timeoutNtNtCsiTraAjBDcu4_5alloc6string6StringECs4JsBA7u6QVm_7phaeton
FN:119,_RINvMNtCs8Qt6rdyaNFv_7phaeton5errorNtB3_12PhaetonError3apipEB5_
FN:90,_RINvMNtCs8Qt6rdyaNFv_7phaeton5errorNtB3_12PhaetonError3webpEB5_
FN:140,_RINvMNtCs8Qt6rdyaNFv_7phaeton5errorNtB3_12PhaetonError4authpEB5_
FN:83,_RINvMNtCs8Qt6rdyaNFv_7phaeton5errorNtB3_12PhaetonError4dbuspEB5_
FN:133,_RINvMNtCs8Qt6rdyaNFv_7phaeton5errorNtB3_12PhaetonError6updatepEB5_
FN:147,_RINvMNtCs8Qt6rdyaNFv_7phaeton5errorNtB3_12PhaetonError7genericpEB5_
FN:112,_RINvMNtCs8Qt6rdyaNFv_7phaeton5errorNtB3_12PhaetonError7networkpEB5_
FN:126,_RINvMNtCs8Qt6rdyaNFv_7phaeton5errorNtB3_12PhaetonError7timeoutpEB5_
FN:161,_RNvXs0_NtCs8Qt6rdyaNFv_7phaeton5errorNtB5_12PhaetonErrorINtNtCsaNl6UpbT7bw_4core7convert4FromNtNtCsl1gqqCBhTm2_10serde_yaml5error5ErrorE4from
FN:169,_RNvXs1_NtCs8Qt6rdyaNFv_7phaeton5errorNtB5_12PhaetonErrorINtNtCsaNl6UpbT7bw_4core7convert4FromNtNtCsbQvEGqeA7WV_10serde_json5error5ErrorE4from
FN:184,_RNvXs2_NtCs8Qt6rdyaNFv_7phaeton5errorNtB5_12PhaetonErrorINtNtCsaNl6UpbT7bw_4core7convert4FromNtNtCs6JhIk6we9ok_7reqwest5error5ErrorE4from
FN:197,_RNvXs3_NtCs8Qt6rdyaNFv_7phaeton5errorNtB5_12PhaetonErrorINtNtCsaNl6UpbT7bw_4core7convert4FromNtNtCslrcQRJuYIgi_6config5error11ConfigErrorE4from
FN:203,_RNvXs4_NtCs8Qt6rdyaNFv_7phaeton5errorNtB5_12PhaetonErrorINtNtCsaNl6UpbT7bw_4core7convert4FromNtNtCs4QtRXoo8nld_6chrono6format10ParseErrorE4from
FN:209,_RNvXs5_NtCs8Qt6rdyaNFv_7phaeton5errorNtB5_12PhaetonErrorINtNtCsaNl6UpbT7bw_4core7convert4FromNtNtCsipm0DdEu4sZ_4git25error5ErrorE4from
FN:155,_RNvXs_NtCs8Qt6rdyaNFv_7phaeton5errorNtB4_12PhaetonErrorINtNtCsaNl6UpbT7bw_4core7convert4FromNtNtNtCsht3nMU9UgFu_3std2io5error5ErrorE4from
FN:233,_RNvNtNtCs8Qt6rdyaNFv_7phaeton5error5testss_18test_error_display
FN:221,_RNvNtNtCs8Qt6rdyaNFv_7phaeton5error5testss_19test_error_creation
FN:97,_RINvMNtCs8Qt6rdyaNFv_7phaeton5errorNtB3_12PhaetonError10validationReEB5_
FN:105,_RINvMNtCs8Qt6rdyaNFv_7phaeton5errorNtB3_12PhaetonError2ioNtNtCsiTraAjBDcu4_5alloc6string6StringEB5_
FN:69,_RINvMNtCs8Qt6rdyaNFv_7phaeton5errorNtB3_12PhaetonError6configNtNtCsiTraAjBDcu4_5alloc6string6StringEB5_
FN:69,_RINvMNtCs8Qt6rdyaNFv_7phaeton5errorNtB3_12PhaetonError6configReEB5_
FN:76,_RINvMNtCs8Qt6rdyaNFv_7phaeton5errorNtB3_12PhaetonError6modbusNtNtCsiTraAjBDcu4_5alloc6string6StringEB5_
FN:76,_RINvMNtCs8Qt6rdyaNFv_7phaeton5errorNtB3_12PhaetonError6modbusReEB5_
FNDA:0,_RINvMNtCsgT6CZGVyCTz_7phaeton5errorNtB3_12PhaetonError3webpEB5_
FNDA:0,_RINvMNtCsgT6CZGVyCTz_7phaeton5errorNtB3_12PhaetonError4authpEB5_
FNDA:0,_RINvMNtCsgT6CZGVyCTz_7phaeton5errorNtB3_12PhaetonError7timeoutpEB5_
FNDA:2,_RINvMNtCsgT6CZGVyCTz_7phaeton5errorNtB3_12PhaetonError10validationReEB5_
FNDA:0,_RINvMNtCsgT6CZGVyCTz_7phaeton5errorNtB3_12PhaetonError2ioNtNtCsiTraAjBDcu4_5alloc6string6StringEB5_
FNDA:2,_RINvMNtCsgT6CZGVyCTz_7phaeton5errorNtB3_12PhaetonError3apiReEB5_
FNDA:0,_RINvMNtCsgT6CZGVyCTz_7phaeton5errorNtB3_12PhaetonError4dbusNtNtCsiTraAjBDcu4_5alloc6string6StringEB5_
FNDA:0,_RINvMNtCsgT6CZGVyCTz_7phaeton5errorNtB3_12PhaetonError6configNtNtCsiTraAjBDcu4_5alloc6string6StringEB5_
FNDA:0,_RINvMNtCsgT6CZGVyCTz_7phaeton5errorNtB3_12PhaetonError6modbusNtNtCsiTraAjBDcu4_5alloc6string6StringEB5_
FNDA:1,_RINvMNtCsgT6CZGVyCTz_7phaeton5errorNtB3_12PhaetonError6modbusReEB5_
FNDA:2,_RINvMNtCsgT6CZGVyCTz_7phaeton5errorNtB3_12PhaetonError6updateReEB5_
FNDA:1,_RINvMNtCsgT6CZGVyCTz_7phaeton5errorNtB3_12PhaetonError7genericReEB5_
FNDA:0,_RINvMNtCsgT6CZGVyCTz_7phaeton5errorNtB3_12PhaetonError7networkNtNtCsiTraAjBDcu4_5alloc6string6StringEB5_
FNDA:0,_RNvXs0_NtCsgT6CZGVyCTz_7phaeton5errorNtB5_12PhaetonErrorINtNtCsaNl6UpbT7bw_4core7convert4FromNtNtCsl1gqqCBhTm2_10serde_yaml5error5ErrorE4from
FNDA:0,_RNvXs1_NtCsgT6CZGVyCTz_7phaeton5errorNtB5_12PhaetonErrorINtNtCsaNl6UpbT7bw_4core7convert4FromNtNtCsbQvEGqeA7WV_10serde_json5error5ErrorE4from
FNDA:0,_RNvXs2_NtCsgT6CZGVyCTz_7phaeton5errorNtB5_12PhaetonErrorINtNtCsaNl6UpbT7bw_4core7convert4FromNtNtCs6JhIk6we9ok_7reqwest5error5ErrorE4from
FNDA:0,_RNvXs3_NtCsgT6CZGVyCTz_7phaeton5errorNtB5_12PhaetonErrorINtNtCsaNl6UpbT7bw_4core7convert4FromNtNtCslrcQRJuYIgi_6config5error11ConfigErrorE4from
FNDA:0,_RNvXs4_NtCsgT6CZGVyCTz_7phaeton5errorNtB5_12PhaetonErrorINtNtCsaNl6UpbT7bw_4core7convert4FromNtNtCs4QtRXoo8nld_6chrono6format10ParseErrorE4from
FNDA:0,_RNvXs5_NtCsgT6CZGVyCTz_7phaeton5errorNtB5_12PhaetonErrorINtNtCsaNl6UpbT7bw_4core7convert4FromNtNtCsipm0DdEu4sZ_4git25error5ErrorE4from
FNDA:0,_RNvXs_NtCsgT6CZGVyCTz_7phaeton5errorNtB4_12PhaetonErrorINtNtCsaNl6UpbT7bw_4core7convert4FromNtNtNtCsht3nMU9UgFu_3std2io5error5ErrorE4from
FNDA:1,_RINvMNtCsgT6CZGVyCTz_7phaeton5errorNtB3_12PhaetonError2ioReECskc42ooh1EAH_23error_constructors_test
FNDA:1,_RINvMNtCsgT6CZGVyCTz_7phaeton5errorNtB3_12PhaetonError3webReECskc42ooh1EAH_23error_constructors_test
FNDA:1,_RINvMNtCsgT6CZGVyCTz_7phaeton5errorNtB3_12PhaetonError4authReECskc42ooh1EAH_23error_constructors_test
FNDA:1,_RINvMNtCsgT6CZGVyCTz_7phaeton5errorNtB3_12PhaetonError4dbusReECskc42ooh1EAH_23error_constructors_test
FNDA:1,_RINvMNtCsgT6CZGVyCTz_7phaeton5errorNtB3_12PhaetonError6configReECskc42ooh1EAH_23error_constructors_test
FNDA:1,_RINvMNtCsgT6CZGVyCTz_7phaeton5errorNtB3_12PhaetonError7networkReECskc42ooh1EAH_23error_constructors_test
FNDA:1,_RINvMNtCsgT6CZGVyCTz_7phaeton5errorNtB3_12PhaetonError7timeoutReECskc42ooh1EAH_23error_constructors_test
FNDA:0,_RINvMNtCsgT6CZGVyCTz_7phaeton5errorNtB3_12PhaetonError7timeoutNtNtCsiTraAjBDcu4_5alloc6string6StringECs4JsBA7u6QVm_7phaeton
FNDA:0,_RINvMNtCs8Qt6rdyaNFv_7phaeton5errorNtB3_12PhaetonError3apipEB5_
FNDA:0,_RINvMNtCs8Qt6rdyaNFv_7phaeton5errorNtB3_12PhaetonError3webpEB5_
FNDA:0,_RINvMNtCs8Qt6rdyaNFv_7phaeton5errorNtB3_12PhaetonError4authpEB5_
FNDA:0,_RINvMNtCs8Qt6rdyaNFv_7phaeton5errorNtB3_12PhaetonError4dbuspEB5_
FNDA:0,_RINvMNtCs8Qt6rdyaNFv_7phaeton5errorNtB3_12PhaetonError6updatepEB5_
FNDA:0,_RINvMNtCs8Qt6rdyaNFv_7phaeton5errorNtB3_12PhaetonError7genericpEB5_
FNDA:0,_RINvMNtCs8Qt6rdyaNFv_7phaeton5errorNtB3_12PhaetonError7networkpEB5_
FNDA:0,_RINvMNtCs8Qt6rdyaNFv_7phaeton5errorNtB3_12PhaetonError7timeoutpEB5_
FNDA:0,_RNvXs0_NtCs8Qt6rdyaNFv_7phaeton5errorNtB5_12PhaetonErrorINtNtCsaNl6UpbT7bw_4core7convert4FromNtNtCsl1gqqCBhTm2_10serde_yaml5error5ErrorE4from
FNDA:0,_RNvXs1_NtCs8Qt6rdyaNFv_7phaeton5errorNtB5_12PhaetonErrorINtNtCsaNl6UpbT7bw_4core7convert4FromNtNtCsbQvEGqeA7WV_10serde_json5error5ErrorE4from
FNDA:0,_RNvXs2_NtCs8Qt6rdyaNFv_7phaeton5errorNtB5_12PhaetonErrorINtNtCsaNl6UpbT7bw_4core7convert4FromNtNtCs6JhIk6we9ok_7reqwest5error5ErrorE4from
FNDA:0,_RNvXs3_NtCs8Qt6rdyaNFv_7phaeton5errorNtB5_12PhaetonErrorINtNtCsaNl6UpbT7bw_4core7convert4FromNtNtCslrcQRJuYIgi_6config5error11ConfigErrorE4from
FNDA:0,_RNvXs4_NtCs8Qt6rdyaNFv_7phaeton5errorNtB5_12PhaetonErrorINtNtCsaNl6UpbT7bw_4core7convert4FromNtNtCs4QtRXoo8nld_6chrono6format10ParseErrorE4from
FNDA:0,_RNvXs5_NtCs8Qt6rdyaNFv_7phaeton5errorNtB5_12PhaetonErrorINtNtCsaNl6UpbT7bw_4core7convert4FromNtNtCsipm0DdEu4sZ_4git25error5ErrorE4from
FNDA:0,_RNvXs_NtCs8Qt6rdyaNFv_7phaeton5errorNtB4_12PhaetonErrorINtNtCsaNl6UpbT7bw_4core7convert4FromNtNtNtCsht3nMU9UgFu_3std2io5error5ErrorE4from
FNDA:1,_RNvNtNtCs8Qt6rdyaNFv_7phaeton5error5testss_18test_error_display
FNDA:1,_RNvNtNtCs8Qt6rdyaNFv_7phaeton5error5testss_19test_error_creation
FNDA:4,_RINvMNtCs8Qt6rdyaNFv_7phaeton5errorNtB3_12PhaetonError10validationReEB5_
FNDA:1,_RINvMNtCs8Qt6rdyaNFv_7phaeton5errorNtB3_12PhaetonError2ioNtNtCsiTraAjBDcu4_5alloc6string6StringEB5_
FNDA:1,_RINvMNtCs8Qt6rdyaNFv_7phaeton5errorNtB3_12PhaetonError6configNtNtCsiTraAjBDcu4_5alloc6string6StringEB5_
FNDA:2,_RINvMNtCs8Qt6rdyaNFv_7phaeton5errorNtB3_12PhaetonError6configReEB5_
FNDA:0,_RINvMNtCs8Qt6rdyaNFv_7phaeton5errorNtB3_12PhaetonError6modbusNtNtCsiTraAjBDcu4_5alloc6string6StringEB5_
FNDA:1,_RINvMNtCs8Qt6rdyaNFv_7phaeton5errorNtB3_12PhaetonError6modbusReEB5_
FNF:21
FNH:14
DA:69,4
DA:70,4
DA:71,4
DA:72,4
DA:73,4
DA:76,2
DA:77,2
DA:78,2
DA:79,2
DA:80,2
DA:83,1
DA:84,1
DA:85,1
DA:86,1
DA:87,1
DA:90,1
DA:91,1
DA:92,1
DA:93,1
DA:94,1
DA:97,6
DA:98,6
DA:99,6
DA:100,6
DA:101,6
DA:102,6
DA:105,2
DA:106,2
DA:107,2
DA:108,2
DA:109,2
DA:112,1
DA:113,1
DA:114,1
DA:115,1
DA:116,1
DA:119,2
DA:120,2
DA:121,2
DA:122,2
DA:123,2
DA:126,1
DA:127,1
DA:128,1
DA:129,1
DA:130,1
DA:133,2
DA:134,2
DA:135,2
DA:136,2
DA:137,2
DA:140,1
DA:141,1
DA:142,1
DA:143,1
DA:144,1
DA:147,1
DA:148,1
DA:149,1
DA:150,1
DA:151,1
DA:155,0
DA:156,0
DA:157,0
DA:161,0
DA:162,0
DA:163,0
DA:164,0
DA:165,0
DA:169,0
DA:170,0
DA:171,0
DA:172,0
DA:173,0
DA:184,0
DA:185,0
DA:186,0
DA:197,0
DA:198,0
DA:199,0
DA:203,0
DA:204,0
DA:205,0
DA:209,0
DA:210,0
DA:211,0
DA:212,0
DA:213,0
DA:221,1
DA:222,1
DA:223,1
DA:225,1
DA:226,1
DA:228,1
DA:229,1
DA:230,1
DA:233,1
DA:234,1
DA:235,1
DA:236,1
DA:238,1
DA:239,1
DA:240,1
DA:241,1
BRF:0
BRH:0
LF:104
LH:77
end_of_record
SF:/Users/ron/Git/phaeton/src/logging.rs
FN:134,_RNvMNtCsgT6CZGVyCTz_7phaeton7loggingNtB2_10LogContext10with_field
FN:122,_RNvMNtCsgT6CZGVyCTz_7phaeton7loggingNtB2_10LogContext15with_session_id
FN:128,_RNvMNtCsgT6CZGVyCTz_7phaeton7loggingNtB2_10LogContext20with_device_instance
FN:112,_RNvMNtCsgT6CZGVyCTz_7phaeton7loggingNtB2_10LogContext3new
FN:183,_RNvMs_NtCsgT6CZGVyCTz_7phaeton7loggingNtB4_16StructuredLogger13format_fields
FN:148,_RNvMs_NtCsgT6CZGVyCTz_7phaeton7loggingNtB4_16StructuredLogger3new
FN:153,_RNvMs_NtCsgT6CZGVyCTz_7phaeton7loggingNtB4_16StructuredLogger4info
FN:159,_RNvMs_NtCsgT6CZGVyCTz_7phaeton7loggingNtB4_16StructuredLogger4warn
FN:171,_RNvMs_NtCsgT6CZGVyCTz_7phaeton7loggingNtB4_16StructuredLogger5debug
FN:165,_RNvMs_NtCsgT6CZGVyCTz_7phaeton7loggingNtB4_16StructuredLogger5error
FN:177,_RNvMs_NtCsgT6CZGVyCTz_7phaeton7loggingNtB4_16StructuredLogger5trace
FN:203,_RNvNtCsgT6CZGVyCTz_7phaeton7logging10get_logger
FN:18,_RNvNtCsgT6CZGVyCTz_7phaeton7logging12init_logging
FN:80,_RNvNtCsgT6CZGVyCTz_7phaeton7logging15parse_log_level
FN:209,_RNvNtCsgT6CZGVyCTz_7phaeton7logging23get_logger_with_context
FN:214,_RNvNtCsgT6CZGVyCTz_7phaeton7logging8shutdown
FN:28,_RNCNvNtCsgT6CZGVyCTz_7phaeton7logging12init_logging0B5_
FN:37,_RNCNvNtCsgT6CZGVyCTz_7phaeton7logging12init_loggings_0B5_
FN:227,_RNCNvNtNtCs8Qt6rdyaNFv_7phaeton7logging5tests17init_test_logging0B7_
FN:177,_RNvMs_NtCs8Qt6rdyaNFv_7phaeton7loggingNtB4_16StructuredLogger5trace
FN:209,_RNvNtCs8Qt6rdyaNFv_7phaeton7logging23get_logger_with_context
FN:214,_RNvNtCs8Qt6rdyaNFv_7phaeton7logging8shutdown
FN:226,_RNvNtNtCs8Qt6rdyaNFv_7phaeton7logging5tests17init_test_logging
FN:269,_RNvNtNtCs8Qt6rdyaNFv_7phaeton7logging5testss_15test_get_logger
FN:242,_RNvNtNtCs8Qt6rdyaNFv_7phaeton7logging5testss_16test_log_context
FN:234,_RNvNtNtCs8Qt6rdyaNFv_7phaeton7logging5testss_20test_parse_log_level
FN:255,_RNvNtNtCs8Qt6rdyaNFv_7phaeton7logging5testss_22test_structured_logger
FN:28,_RNCNvNtCs8Qt6rdyaNFv_7phaeton7logging12init_logging0B5_
FN:37,_RNCNvNtCs8Qt6rdyaNFv_7phaeton7logging12init_loggings_0B5_
FN:134,_RNvMNtCs8Qt6rdyaNFv_7phaeton7loggingNtB2_10LogContext10with_field
FN:122,_RNvMNtCs8Qt6rdyaNFv_7phaeton7loggingNtB2_10LogContext15with_session_id
FN:128,_RNvMNtCs8Qt6rdyaNFv_7phaeton7loggingNtB2_10LogContext20with_device_instance
FN:112,_RNvMNtCs8Qt6rdyaNFv_7phaeton7loggingNtB2_10LogContext3new
FN:183,_RNvMs_NtCs8Qt6rdyaNFv_7phaeton7loggingNtB4_16StructuredLogger13format_fields
FN:148,_RNvMs_NtCs8Qt6rdyaNFv_7phaeton7loggingNtB4_16StructuredLogger3new
FN:153,_RNvMs_NtCs8Qt6rdyaNFv_7phaeton7loggingNtB4_16StructuredLogger4info
FN:159,_RNvMs_NtCs8Qt6rdyaNFv_7phaeton7loggingNtB4_16StructuredLogger4warn
FN:171,_RNvMs_NtCs8Qt6rdyaNFv_7phaeton7loggingNtB4_16StructuredLogger5debug
FN:165,_RNvMs_NtCs8Qt6rdyaNFv_7phaeton7loggingNtB4_16StructuredLogger5error
FN:203,_RNvNtCs8Qt6rdyaNFv_7phaeton7logging10get_logger
FN:18,_RNvNtCs8Qt6rdyaNFv_7phaeton7logging12init_logging
FN:80,_RNvNtCs8Qt6rdyaNFv_7phaeton7logging15parse_log_level
FNDA:0,_RNvMNtCsgT6CZGVyCTz_7phaeton7loggingNtB2_10LogContext10with_field
FNDA:0,_RNvMNtCsgT6CZGVyCTz_7phaeton7loggingNtB2_10LogContext15with_session_id
FNDA:0,_RNvMNtCsgT6CZGVyCTz_7phaeton7loggingNtB2_10LogContext20with_device_instance
FNDA:13,_RNvMNtCsgT6CZGVyCTz_7phaeton7loggingNtB2_10LogContext3new
FNDA:4,_RNvMs_NtCsgT6CZGVyCTz_7phaeton7loggingNtB4_16StructuredLogger13format_fields
FNDA:13,_RNvMs_NtCsgT6CZGVyCTz_7phaeton7loggingNtB4_16StructuredLogger3new
FNDA:3,_RNvMs_NtCsgT6CZGVyCTz_7phaeton7loggingNtB4_16StructuredLogger4info
FNDA:0,_RNvMs_NtCsgT6CZGVyCTz_7phaeton7loggingNtB4_16StructuredLogger4warn
FNDA:1,_RNvMs_NtCsgT6CZGVyCTz_7phaeton7loggingNtB4_16StructuredLogger5debug
FNDA:0,_RNvMs_NtCsgT6CZGVyCTz_7phaeton7loggingNtB4_16StructuredLogger5error
FNDA:0,_RNvMs_NtCsgT6CZGVyCTz_7phaeton7loggingNtB4_16StructuredLogger5trace
FNDA:13,_RNvNtCsgT6CZGVyCTz_7phaeton7logging10get_logger
FNDA:0,_RNvNtCsgT6CZGVyCTz_7phaeton7logging12init_logging
FNDA:0,_RNvNtCsgT6CZGVyCTz_7phaeton7logging15parse_log_level
FNDA:0,_RNvNtCsgT6CZGVyCTz_7phaeton7logging23get_logger_with_context
FNDA:0,_RNvNtCsgT6CZGVyCTz_7phaeton7logging8shutdown
FNDA:0,_RNCNvNtCsgT6CZGVyCTz_7phaeton7logging12init_logging0B5_
FNDA:0,_RNCNvNtCsgT6CZGVyCTz_7phaeton7logging12init_loggings_0B5_
FNDA:1,_RNCNvNtNtCs8Qt6rdyaNFv_7phaeton7logging5tests17init_test_logging0B7_
FNDA:0,_RNvMs_NtCs8Qt6rdyaNFv_7phaeton7loggingNtB4_16StructuredLogger5trace
FNDA:0,_RNvNtCs8Qt6rdyaNFv_7phaeton7logging23get_logger_with_context
FNDA:0,_RNvNtCs8Qt6rdyaNFv_7phaeton7logging8shutdown
FNDA:1,_RNvNtNtCs8Qt6rdyaNFv_7phaeton7logging5tests17init_test_logging
FNDA:1,_RNvNtNtCs8Qt6rdyaNFv_7phaeton7logging5testss_15test_get_logger
FNDA:1,_RNvNtNtCs8Qt6rdyaNFv_7phaeton7logging5testss_16test_log_context
FNDA:1,_RNvNtNtCs8Qt6rdyaNFv_7phaeton7logging5testss_20test_parse_log_level
FNDA:1,_RNvNtNtCs8Qt6rdyaNFv_7phaeton7logging5testss_22test_structured_logger
FNDA:1,_RNCNvNtCs8Qt6rdyaNFv_7phaeton7logging12init_logging0B5_
FNDA:1,_RNCNvNtCs8Qt6rdyaNFv_7phaeton7logging12init_loggings_0B5_
FNDA:1,_RNvMNtCs8Qt6rdyaNFv_7phaeton7loggingNtB2_10LogContext10with_field
FNDA:1,_RNvMNtCs8Qt6rdyaNFv_7phaeton7loggingNtB2_10LogContext15with_session_id
FNDA:1,_RNvMNtCs8Qt6rdyaNFv_7phaeton7loggingNtB2_10LogContext20with_device_instance
FNDA:4,_RNvMNtCs8Qt6rdyaNFv_7phaeton7loggingNtB2_10LogContext3new
FNDA:4,_RNvMs_NtCs8Qt6rdyaNFv_7phaeton7loggingNtB4_16StructuredLogger13format_fields
FNDA:3,_RNvMs_NtCs8Qt6rdyaNFv_7phaeton7loggingNtB4_16StructuredLogger3new
FNDA:1,_RNvMs_NtCs8Qt6rdyaNFv_7phaeton7loggingNtB4_16StructuredLogger4info
FNDA:1,_RNvMs_NtCs8Qt6rdyaNFv_7phaeton7loggingNtB4_16StructuredLogger4warn
FNDA:1,_RNvMs_NtCs8Qt6rdyaNFv_7phaeton7loggingNtB4_16StructuredLogger5debug
FNDA:1,_RNvMs_NtCs8Qt6rdyaNFv_7phaeton7loggingNtB4_16StructuredLogger5error
FNDA:2,_RNvNtCs8Qt6rdyaNFv_7phaeton7logging10get_logger
FNDA:1,_RNvNtCs8Qt6rdyaNFv_7phaeton7logging12init_logging
FNDA:5,_RNvNtCs8Qt6rdyaNFv_7phaeton7logging15parse_log_level
FNF:24
FNH:21
DA:18,1
DA:20,1
DA:21,0
DA:22,1
DA:24,1
DA:27,1
DA:28,1
DA:31,1
DA:32,1
DA:33,1
DA:34,1
DA:35,1
DA:36,1
DA:37,1
DA:39,0
DA:41,0
DA:44,0
DA:47,0
DA:48,0
DA:49,0
DA:50,0
DA:51,0
DA:53,0
DA:54,0
DA:56,0
DA:60,0
DA:63,0
DA:64,0
DA:65,0
DA:66,0
DA:69,0
DA:71,0
DA:72,0
DA:76,0
DA:77,1
DA:80,5
DA:81,5
DA:82,5
DA:83,5
DA:84,4
DA:85,2
DA:86,2
DA:87,1
DA:88,1
DA:89,1
DA:90,1
DA:92,5
DA:112,17
DA:113,17
DA:114,17
DA:115,17
DA:116,17
DA:117,17
DA:118,17
DA:119,17
DA:122,1
DA:123,1
DA:124,1
DA:125,1
DA:128,1
DA:129,1
DA:130,1
DA:131,1
DA:134,1
DA:135,1
DA:136,1
DA:137,1
DA:148,16
DA:149,16
DA:150,16
DA:153,4
DA:154,4
DA:155,4
DA:156,4
DA:159,1
DA:160,1
DA:161,1
DA:162,1
DA:165,1
DA:166,1
DA:167,1
DA:168,1
DA:171,2
DA:172,2
DA:173,2
DA:174,2
DA:177,0
DA:178,0
DA:179,0
DA:180,0
DA:183,8
DA:184,8
DA:186,8
DA:187,0
DA:188,8
DA:190,8
DA:191,0
DA:192,8
DA:194,8
DA:195,0
DA:196,0
DA:198,8
DA:199,8
DA:203,15
DA:204,15
DA:205,15
DA:206,15
DA:209,0
DA:210,0
DA:211,0
DA:214,0
DA:217,0
DA:226,1
DA:227,1
DA:228,1
DA:229,1
DA:230,1
DA:231,1
DA:234,1
DA:235,1
DA:236,1
DA:237,1
DA:238,1
DA:239,1
DA:242,1
DA:243,1
DA:244,1
DA:245,1
DA:246,1
DA:248,1
DA:249,1
DA:250,1
DA:251,1
DA:252,1
DA:255,1
DA:256,1
DA:258,1
DA:259,1
DA:262,1
DA:263,1
DA:264,1
DA:265,1
DA:266,1
DA:269,1
DA:270,1
DA:271,1
DA:272,1
BRF:0
BRH:0
LF:150
LH:116
end_of_record
SF:/Users/ron/Git/phaeton/src/main.rs
FN:9,_RNvCs4JsBA7u6QVm_7phaeton4main
FN:16,_RNCNCNvCs4JsBA7u6QVm_7phaeton4main00B5_
FN:25,_RNCNCNvCs4JsBA7u6QVm_7phaeton4main0s_0B5_
FN:9,_RNCNvCs4JsBA7u6QVm_7phaeton4main0B3_
FN:16,_RNCNCNvCsiblmU7cqy1x_7phaeton4main00B5_
FN:25,_RNCNCNvCsiblmU7cqy1x_7phaeton4main0s_0B5_
FN:9,_RNCNvCsiblmU7cqy1x_7phaeton4main0B3_
FN:9,_RNvCsiblmU7cqy1x_7phaeton4main
FNDA:0,_RNvCs4JsBA7u6QVm_7phaeton4main
FNDA:0,_RNCNCNvCs4JsBA7u6QVm_7phaeton4main00B5_
FNDA:0,_RNCNCNvCs4JsBA7u6QVm_7phaeton4main0s_0B5_
FNDA:0,_RNCNvCs4JsBA7u6QVm_7phaeton4main0B3_
FNDA:0,_RNCNCNvCsiblmU7cqy1x_7phaeton4main00B5_
FNDA:0,_RNCNCNvCsiblmU7cqy1x_7phaeton4main0s_0B5_
FNDA:0,_RNCNvCsiblmU7cqy1x_7phaeton4main0B3_
FNDA:0,_RNvCsiblmU7cqy1x_7phaeton4main
FNF:4
FNH:0
DA:9,0
DA:11,0
DA:14,0
DA:15,0
DA:16,0
DA:18,0
DA:21,0
DA:24,0
DA:25,0
DA:26,0
DA:27,0
DA:28,0
DA:30,0
DA:31,0
DA:32,0
DA:33,0
DA:36,0
DA:37,0
DA:38,0
DA:39,0
DA:40,0
DA:41,0
DA:42,0
DA:43,0
DA:44,0
DA:45,0
DA:46,0
DA:47,0
DA:48,0
DA:49,0
BRF:0
BRH:0
LF:41
LH:0
end_of_record
SF:/Users/ron/Git/phaeton/src/modbus.rs
FN:243,_RNCNvMNtCsgT6CZGVyCTz_7phaeton6modbusNtB4_12ModbusClient10get_client0B6_
FN:309,_RNCNvNtCsgT6CZGVyCTz_7phaeton6modbus13decode_string0B5_
FN:353,_RINvMs_NtCsgT6CZGVyCTz_7phaeton6modbusNtB5_23ModbusConnectionManager22execute_with_reconnectppEB7_
FN:356,_RNCINvMs_NtCsgT6CZGVyCTz_7phaeton6modbusNtB7_23ModbusConnectionManager22execute_with_reconnectppE0B9_
FN:56,_RNCNCNvMNtCsgT6CZGVyCTz_7phaeton6modbusNtB6_12ModbusClient7connect00B8_
FN:78,_RNCNvMNtCsgT6CZGVyCTz_7phaeton6modbusNtB4_12ModbusClient10disconnect0B6_
FN:151,_RNCNvMNtCsgT6CZGVyCTz_7phaeton6modbusNtB4_12ModbusClient21write_single_register0B6_
FN:99,_RNCNvMNtCsgT6CZGVyCTz_7phaeton6modbusNtB4_12ModbusClient22read_holding_registers0B6_
FN:196,_RNCNvMNtCsgT6CZGVyCTz_7phaeton6modbusNtB4_12ModbusClient24write_multiple_registers0B6_
FN:48,_RNCNvMNtCsgT6CZGVyCTz_7phaeton6modbusNtB4_12ModbusClient7connect0B6_
FN:78,_RNvMNtCsgT6CZGVyCTz_7phaeton6modbusNtB2_12ModbusClient10disconnect
FN:240,_RNvMNtCsgT6CZGVyCTz_7phaeton6modbusNtB2_12ModbusClient10get_client
FN:89,_RNvMNtCsgT6CZGVyCTz_7phaeton6modbusNtB2_12ModbusClient12is_connected
FN:146,_RNvMNtCsgT6CZGVyCTz_7phaeton6modbusNtB2_12ModbusClient21write_single_register
FN:94,_RNvMNtCsgT6CZGVyCTz_7phaeton6modbusNtB2_12ModbusClient22read_holding_registers
FN:191,_RNvMNtCsgT6CZGVyCTz_7phaeton6modbusNtB2_12ModbusClient24write_multiple_registers
FN:36,_RNvMNtCsgT6CZGVyCTz_7phaeton6modbusNtB2_12ModbusClient3new
FN:48,_RNvMNtCsgT6CZGVyCTz_7phaeton6modbusNtB2_12ModbusClient7connect
FN:398,_RNvMs_NtCsgT6CZGVyCTz_7phaeton6modbusNtB4_23ModbusConnectionManager19is_connection_error
FN:341,_RNvMs_NtCsgT6CZGVyCTz_7phaeton6modbusNtB4_23ModbusConnectionManager3new
FN:291,_RNvNtCsgT6CZGVyCTz_7phaeton6modbus13decode_string
FN:249,_RNvNtCsgT6CZGVyCTz_7phaeton6modbus18decode_32bit_float
FN:268,_RNvNtCsgT6CZGVyCTz_7phaeton6modbus18decode_64bit_float
FN:321,_RNvNtCsgT6CZGVyCTz_7phaeton6modbus18encode_32bit_float
FN:353,_RINvMs_NtCsgT6CZGVyCTz_7phaeton6modbusNtB5_23ModbusConnectionManager22execute_with_reconnectNCNCNvMNtB7_6driverNtB1z_11AlfenDriver10poll_cycle00INtNtCsiTraAjBDcu4_5alloc3vec3VectEECs4JsBA7u6QVm_7phaeton
FN:353,_RINvMs_NtCsgT6CZGVyCTz_7phaeton6modbusNtB5_23ModbusConnectionManager22execute_with_reconnectNCNCNvMNtB7_6driverNtB1z_11AlfenDriver10poll_cycle0s0_0INtNtCsiTraAjBDcu4_5alloc3vec3VectEECs4JsBA7u6QVm_7phaeton
FN:353,_RINvMs_NtCsgT6CZGVyCTz_7phaeton6modbusNtB5_23ModbusConnectionManager22execute_with_reconnectNCNCNvMNtB7_6driverNtB1z_11AlfenDriver10poll_cycle0s1_0INtNtCsiTraAjBDcu4_5alloc3vec3VectEECs4JsBA7u6QVm_7phaeton
FN:353,_RINvMs_NtCsgT6CZGVyCTz_7phaeton6modbusNtB5_23ModbusConnectionManager22execute_with_reconnectNCNCNvMNtB7_6driverNtB1z_11AlfenDriver10poll_cycle0s2_0INtNtCsiTraAjBDcu4_5alloc3vec3VectEECs4JsBA7u6QVm_7phaeton
FN:353,_RINvMs_NtCsgT6CZGVyCTz_7phaeton6modbusNtB5_23ModbusConnectionManager22execute_with_reconnectNCNCNvMNtB7_6driverNtB1z_11AlfenDriver10poll_cycle0s3_0INtNtCsiTraAjBDcu4_5alloc3vec3VectEECs4JsBA7u6QVm_7phaeton
FN:353,_RINvMs_NtCsgT6CZGVyCTz_7phaeton6modbusNtB5_23ModbusConnectionManager22execute_with_reconnectNCNCNvMNtB7_6driverNtB1z_11AlfenDriver10poll_cycle0s4_0uECs4JsBA7u6QVm_7phaeton
FN:353,_RINvMs_NtCsgT6CZGVyCTz_7phaeton6modbusNtB5_23ModbusConnectionManager22execute_with_reconnectNCNCNvMNtB7_6driverNtB1z_11AlfenDriver10poll_cycle0s_0INtNtCsiTraAjBDcu4_5alloc3vec3VectEECs4JsBA7u6QVm_7phaeton
FN:356,_RNCINvMs_NtCsgT6CZGVyCTz_7phaeton6modbusNtB7_23ModbusConnectionManager22execute_with_reconnectNCNCNvMNtB9_6driverNtB1B_11AlfenDriver10poll_cycle00INtNtCsiTraAjBDcu4_5alloc3vec3VectEE0Cs4JsBA7u6QVm_7phaeton
FN:356,_RNCINvMs_NtCsgT6CZGVyCTz_7phaeton6modbusNtB7_23ModbusConnectionManager22execute_with_reconnectNCNCNvMNtB9_6driverNtB1B_11AlfenDriver10poll_cycle0s0_0INtNtCsiTraAjBDcu4_5alloc3vec3VectEE0Cs4JsBA7u6QVm_7phaeton
FN:356,_RNCINvMs_NtCsgT6CZGVyCTz_7phaeton6modbusNtB7_23ModbusConnectionManager22execute_with_reconnectNCNCNvMNtB9_6driverNtB1B_11AlfenDriver10poll_cycle0s1_0INtNtCsiTraAjBDcu4_5alloc3vec3VectEE0Cs4JsBA7u6QVm_7phaeton
FN:356,_RNCINvMs_NtCsgT6CZGVyCTz_7phaeton6modbusNtB7_23ModbusConnectionManager22execute_with_reconnectNCNCNvMNtB9_6driverNtB1B_11AlfenDriver10poll_cycle0s2_0INtNtCsiTraAjBDcu4_5alloc3vec3VectEE0Cs4JsBA7u6QVm_7phaeton
FN:356,_RNCINvMs_NtCsgT6CZGVyCTz_7phaeton6modbusNtB7_23ModbusConnectionManager22execute_with_reconnectNCNCNvMNtB9_6driverNtB1B_11AlfenDriver10poll_cycle0s3_0INtNtCsiTraAjBDcu4_5alloc3vec3VectEE0Cs4JsBA7u6QVm_7phaeton
FN:356,_RNCINvMs_NtCsgT6CZGVyCTz_7phaeton6modbusNtB7_23ModbusConnectionManager22execute_with_reconnectNCNCNvMNtB9_6driverNtB1B_11AlfenDriver10poll_cycle0s4_0uE0Cs4JsBA7u6QVm_7phaeton
FN:356,_RNCINvMs_NtCsgT6CZGVyCTz_7phaeton6modbusNtB7_23ModbusConnectionManager22execute_with_reconnectNCNCNvMNtB9_6driverNtB1B_11AlfenDriver10poll_cycle0s_0INtNtCsiTraAjBDcu4_5alloc3vec3VectEE0Cs4JsBA7u6QVm_7phaeton
FN:56,_RNCNCNvMNtCsgT6CZGVyCTz_7phaeton6modbusNtB6_12ModbusClient7connect00Cs4JsBA7u6QVm_7phaeton
FN:78,_RNCNvMNtCsgT6CZGVyCTz_7phaeton6modbusNtB4_12ModbusClient10disconnect0Cs4JsBA7u6QVm_7phaeton
FN:99,_RNCNvMNtCsgT6CZGVyCTz_7phaeton6modbusNtB4_12ModbusClient22read_holding_registers0Cs4JsBA7u6QVm_7phaeton
FN:196,_RNCNvMNtCsgT6CZGVyCTz_7phaeton6modbusNtB4_12ModbusClient24write_multiple_registers0Cs4JsBA7u6QVm_7phaeton
FN:48,_RNCNvMNtCsgT6CZGVyCTz_7phaeton6modbusNtB4_12ModbusClient7connect0Cs4JsBA7u6QVm_7phaeton
FN:353,_RINvMs_NtCs8Qt6rdyaNFv_7phaeton6modbusNtB5_23ModbusConnectionManager22execute_with_reconnectppEB7_
FN:356,_RNCINvMs_NtCs8Qt6rdyaNFv_7phaeton6modbusNtB7_23ModbusConnectionManager22execute_with_reconnectppE0B9_
FN:56,_RNCNCNvMNtCs8Qt6rdyaNFv_7phaeton6modbusNtB6_12ModbusClient7connect00B8_
FN:78,_RNCNvMNtCs8Qt6rdyaNFv_7phaeton6modbusNtB4_12ModbusClient10disconnect0B6_
FN:243,_RNCNvMNtCs8Qt6rdyaNFv_7phaeton6modbusNtB4_12ModbusClient10get_client0B6_
FN:151,_RNCNvMNtCs8Qt6rdyaNFv_7phaeton6modbusNtB4_12ModbusClient21write_single_register0B6_
FN:99,_RNCNvMNtCs8Qt6rdyaNFv_7phaeton6modbusNtB4_12ModbusClient22read_holding_registers0B6_
FN:196,_RNCNvMNtCs8Qt6rdyaNFv_7phaeton6modbusNtB4_12ModbusClient24write_multiple_registers0B6_
FN:48,_RNCNvMNtCs8Qt6rdyaNFv_7phaeton6modbusNtB4_12ModbusClient7connect0B6_
FN:78,_RNvMNtCs8Qt6rdyaNFv_7phaeton6modbusNtB2_12ModbusClient10disconnect
FN:240,_RNvMNtCs8Qt6rdyaNFv_7phaeton6modbusNtB2_12ModbusClient10get_client
FN:146,_RNvMNtCs8Qt6rdyaNFv_7phaeton6modbusNtB2_12ModbusClient21write_single_register
FN:94,_RNvMNtCs8Qt6rdyaNFv_7phaeton6modbusNtB2_12ModbusClient22read_holding_registers
FN:191,_RNvMNtCs8Qt6rdyaNFv_7phaeton6modbusNtB2_12ModbusClient24write_multiple_registers
FN:48,_RNvMNtCs8Qt6rdyaNFv_7phaeton6modbusNtB2_12ModbusClient7connect
FN:398,_RNvMs_NtCs8Qt6rdyaNFv_7phaeton6modbusNtB4_23ModbusConnectionManager19is_connection_error
FN:341,_RNvMs_NtCs8Qt6rdyaNFv_7phaeton6modbusNtB4_23ModbusConnectionManager3new
FN:89,_RNvMNtCs8Qt6rdyaNFv_7phaeton6modbusNtB2_12ModbusClient12is_connected
FN:36,_RNvMNtCs8Qt6rdyaNFv_7phaeton6modbusNtB2_12ModbusClient3new
FN:291,_RNvNtCs8Qt6rdyaNFv_7phaeton6modbus13decode_string
FN:249,_RNvNtCs8Qt6rdyaNFv_7phaeton6modbus18decode_32bit_float
FN:268,_RNvNtCs8Qt6rdyaNFv_7phaeton6modbus18decode_64bit_float
FN:321,_RNvNtCs8Qt6rdyaNFv_7phaeton6modbus18encode_32bit_float
FN:309,_RNCNvNtCs8Qt6rdyaNFv_7phaeton6modbus13decode_string0B5_
FN:439,_RNvNtNtCs8Qt6rdyaNFv_7phaeton6modbus5testss_18test_decode_string
FN:446,_RNvNtNtCs8Qt6rdyaNFv_7phaeton6modbus5testss_18test_modbus_config
FN:418,_RNvNtNtCs8Qt6rdyaNFv_7phaeton6modbus5testss_23test_decode_32bit_float
FN:425,_RNvNtNtCs8Qt6rdyaNFv_7phaeton6modbus5testss_23test_decode_64bit_float
FN:432,_RNvNtNtCs8Qt6rdyaNFv_7phaeton6modbus5testss_23test_encode_32bit_float
FN:454,_RNvNtNtCs8Qt6rdyaNFv_7phaeton6modbus5testss_27test_modbus_client_creation
FNDA:0,_RNCNvMNtCsgT6CZGVyCTz_7phaeton6modbusNtB4_12ModbusClient10get_client0B6_
FNDA:0,_RNCNvNtCsgT6CZGVyCTz_7phaeton6modbus13decode_string0B5_
FNDA:0,_RINvMs_NtCsgT6CZGVyCTz_7phaeton6modbusNtB5_23ModbusConnectionManager22execute_with_reconnectppEB7_
FNDA:0,_RNCINvMs_NtCsgT6CZGVyCTz_7phaeton6modbusNtB7_23ModbusConnectionManager22execute_with_reconnectppE0B9_
FNDA:0,_RNCNCNvMNtCsgT6CZGVyCTz_7phaeton6modbusNtB6_12ModbusClient7connect00B8_
FNDA:0,_RNCNvMNtCsgT6CZGVyCTz_7phaeton6modbusNtB4_12ModbusClient10disconnect0B6_
FNDA:0,_RNCNvMNtCsgT6CZGVyCTz_7phaeton6modbusNtB4_12ModbusClient21write_single_register0B6_
FNDA:0,_RNCNvMNtCsgT6CZGVyCTz_7phaeton6modbusNtB4_12ModbusClient22read_holding_registers0B6_
FNDA:0,_RNCNvMNtCsgT6CZGVyCTz_7phaeton6modbusNtB4_12ModbusClient24write_multiple_registers0B6_
FNDA:0,_RNCNvMNtCsgT6CZGVyCTz_7phaeton6modbusNtB4_12ModbusClient7connect0B6_
FNDA:0,_RNvMNtCsgT6CZGVyCTz_7phaeton6modbusNtB2_12ModbusClient10disconnect
FNDA:0,_RNvMNtCsgT6CZGVyCTz_7phaeton6modbusNtB2_12ModbusClient10get_client
FNDA:1,_RNvMNtCsgT6CZGVyCTz_7phaeton6modbusNtB2_12ModbusClient12is_connected
FNDA:0,_RNvMNtCsgT6CZGVyCTz_7phaeton6modbusNtB2_12ModbusClient21write_single_register
FNDA:0,_RNvMNtCsgT6CZGVyCTz_7phaeton6modbusNtB2_12ModbusClient22read_holding_registers
FNDA:0,_RNvMNtCsgT6CZGVyCTz_7phaeton6modbusNtB2_12ModbusClient24write_multiple_registers
FNDA:1,_RNvMNtCsgT6CZGVyCTz_7phaeton6modbusNtB2_12ModbusClient3new
FNDA:0,_RNvMNtCsgT6CZGVyCTz_7phaeton6modbusNtB2_12ModbusClient7connect
FNDA:0,_RNvMs_NtCsgT6CZGVyCTz_7phaeton6modbusNtB4_23ModbusConnectionManager19is_connection_error
FNDA:0,_RNvMs_NtCsgT6CZGVyCTz_7phaeton6modbusNtB4_23ModbusConnectionManager3new
FNDA:0,_RNvNtCsgT6CZGVyCTz_7phaeton6modbus13decode_string
FNDA:0,_RNvNtCsgT6CZGVyCTz_7phaeton6modbus18decode_32bit_float
FNDA:0,_RNvNtCsgT6CZGVyCTz_7phaeton6modbus18decode_64bit_float
FNDA:0,_RNvNtCsgT6CZGVyCTz_7phaeton6modbus18encode_32bit_float
FNDA:0,_RINvMs_NtCsgT6CZGVyCTz_7phaeton6modbusNtB5_23ModbusConnectionManager22execute_with_reconnectNCNCNvMNtB7_6driverNtB1z_11AlfenDriver10poll_cycle00INtNtCsiTraAjBDcu4_5alloc3vec3VectEECs4JsBA7u6QVm_7phaeton
FNDA:0,_RINvMs_NtCsgT6CZGVyCTz_7phaeton6modbusNtB5_23ModbusConnectionManager22execute_with_reconnectNCNCNvMNtB7_6driverNtB1z_11AlfenDriver10poll_cycle0s0_0INtNtCsiTraAjBDcu4_5alloc3vec3VectEECs4JsBA7u6QVm_7phaeton
FNDA:0,_RINvMs_NtCsgT6CZGVyCTz_7phaeton6modbusNtB5_23ModbusConnectionManager22execute_with_reconnectNCNCNvMNtB7_6driverNtB1z_11AlfenDriver10poll_cycle0s1_0INtNtCsiTraAjBDcu4_5alloc3vec3VectEECs4JsBA7u6QVm_7phaeton
FNDA:0,_RINvMs_NtCsgT6CZGVyCTz_7phaeton6modbusNtB5_23ModbusConnectionManager22execute_with_reconnectNCNCNvMNtB7_6driverNtB1z_11AlfenDriver10poll_cycle0s2_0INtNtCsiTraAjBDcu4_5alloc3vec3VectEECs4JsBA7u6QVm_7phaeton
FNDA:0,_RINvMs_NtCsgT6CZGVyCTz_7phaeton6modbusNtB5_23ModbusConnectionManager22execute_with_reconnectNCNCNvMNtB7_6driverNtB1z_11AlfenDriver10poll_cycle0s3_0INtNtCsiTraAjBDcu4_5alloc3vec3VectEECs4JsBA7u6QVm_7phaeton
FNDA:0,_RINvMs_NtCsgT6CZGVyCTz_7phaeton6modbusNtB5_23ModbusConnectionManager22execute_with_reconnectNCNCNvMNtB7_6driverNtB1z_11AlfenDriver10poll_cycle0s4_0uECs4JsBA7u6QVm_7phaeton
FNDA:0,_RINvMs_NtCsgT6CZGVyCTz_7phaeton6modbusNtB5_23ModbusConnectionManager22execute_with_reconnectNCNCNvMNtB7_6driverNtB1z_11AlfenDriver10poll_cycle0s_0INtNtCsiTraAjBDcu4_5alloc3vec3VectEECs4JsBA7u6QVm_7phaeton
FNDA:0,_RNCINvMs_NtCsgT6CZGVyCTz_7phaeton6modbusNtB7_23ModbusConnectionManager22execute_with_reconnectNCNCNvMNtB9_6driverNtB1B_11AlfenDriver10poll_cycle00INtNtCsiTraAjBDcu4_5alloc3vec3VectEE0Cs4JsBA7u6QVm_7phaeton
FNDA:0,_RNCINvMs_NtCsgT6CZGVyCTz_7phaeton6modbusNtB7_23ModbusConnectionManager22execute_with_reconnectNCNCNvMNtB9_6driverNtB1B_11AlfenDriver10poll_cycle0s0_0INtNtCsiTraAjBDcu4_5alloc3vec3VectEE0Cs4JsBA7u6QVm_7phaeton
FNDA:0,_RNCINvMs_NtCsgT6CZGVyCTz_7phaeton6modbusNtB7_23ModbusConnectionManager22execute_with_reconnectNCNCNvMNtB9_6driverNtB1B_11AlfenDriver10poll_cycle0s1_0INtNtCsiTraAjBDcu4_5alloc3vec3VectEE0Cs4JsBA7u6QVm_7phaeton
FNDA:0,_RNCINvMs_NtCsgT6CZGVyCTz_7phaeton6modbusNtB7_23ModbusConnectionManager22execute_with_reconnectNCNCNvMNtB9_6driverNtB1B_11AlfenDriver10poll_cycle0s2_0INtNtCsiTraAjBDcu4_5alloc3vec3VectEE0Cs4JsBA7u6QVm_7phaeton
FNDA:0,_RNCINvMs_NtCsgT6CZGVyCTz_7phaeton6modbusNtB7_23ModbusConnectionManager22execute_with_reconnectNCNCNvMNtB9_6driverNtB1B_11AlfenDriver10poll_cycle0s3_0INtNtCsiTraAjBDcu4_5alloc3vec3VectEE0Cs4JsBA7u6QVm_7phaeton
FNDA:0,_RNCINvMs_NtCsgT6CZGVyCTz_7phaeton6modbusNtB7_23ModbusConnectionManager22execute_with_reconnectNCNCNvMNtB9_6driverNtB1B_11AlfenDriver10poll_cycle0s4_0uE0Cs4JsBA7u6QVm_7phaeton
FNDA:0,_RNCINvMs_NtCsgT6CZGVyCTz_7phaeton6modbusNtB7_23ModbusConnectionManager22execute_with_reconnectNCNCNvMNtB9_6driverNtB1B_11AlfenDriver10poll_cycle0s_0INtNtCsiTraAjBDcu4_5alloc3vec3VectEE0Cs4JsBA7u6QVm_7phaeton
FNDA:0,_RNCNCNvMNtCsgT6CZGVyCTz_7phaeton6modbusNtB6_12ModbusClient7connect00Cs4JsBA7u6QVm_7phaeton
FNDA:0,_RNCNvMNtCsgT6CZGVyCTz_7phaeton6modbusNtB4_12ModbusClient10disconnect0Cs4JsBA7u6QVm_7phaeton
FNDA:0,_RNCNvMNtCsgT6CZGVyCTz_7phaeton6modbusNtB4_12ModbusClient22read_holding_registers0Cs4JsBA7u6QVm_7phaeton
FNDA:0,_RNCNvMNtCsgT6CZGVyCTz_7phaeton6modbusNtB4_12ModbusClient24write_multiple_registers0Cs4JsBA7u6QVm_7phaeton
FNDA:0,_RNCNvMNtCsgT6CZGVyCTz_7phaeton6modbusNtB4_12ModbusClient7connect0Cs4JsBA7u6QVm_7phaeton
FNDA:0,_RINvMs_NtCs8Qt6rdyaNFv_7phaeton6modbusNtB5_23ModbusConnectionManager22execute_with_reconnectppEB7_
FNDA:0,_RNCINvMs_NtCs8Qt6rdyaNFv_7phaeton6modbusNtB7_23ModbusConnectionManager22execute_with_reconnectppE0B9_
FNDA:0,_RNCNCNvMNtCs8Qt6rdyaNFv_7phaeton6modbusNtB6_12ModbusClient7connect00B8_
FNDA:0,_RNCNvMNtCs8Qt6rdyaNFv_7phaeton6modbusNtB4_12ModbusClient10disconnect0B6_
FNDA:0,_RNCNvMNtCs8Qt6rdyaNFv_7phaeton6modbusNtB4_12ModbusClient10get_client0B6_
FNDA:0,_RNCNvMNtCs8Qt6rdyaNFv_7phaeton6modbusNtB4_12ModbusClient21write_single_register0B6_
FNDA:0,_RNCNvMNtCs8Qt6rdyaNFv_7phaeton6modbusNtB4_12ModbusClient22read_holding_registers0B6_
FNDA:0,_RNCNvMNtCs8Qt6rdyaNFv_7phaeton6modbusNtB4_12ModbusClient24write_multiple_registers0B6_
FNDA:0,_RNCNvMNtCs8Qt6rdyaNFv_7phaeton6modbusNtB4_12ModbusClient7connect0B6_
FNDA:0,_RNvMNtCs8Qt6rdyaNFv_7phaeton6modbusNtB2_12ModbusClient10disconnect
FNDA:0,_RNvMNtCs8Qt6rdyaNFv_7phaeton6modbusNtB2_12ModbusClient10get_client
FNDA:0,_RNvMNtCs8Qt6rdyaNFv_7phaeton6modbusNtB2_12ModbusClient21write_single_register
FNDA:0,_RNvMNtCs8Qt6rdyaNFv_7phaeton6modbusNtB2_12ModbusClient22read_holding_registers
FNDA:0,_RNvMNtCs8Qt6rdyaNFv_7phaeton6modbusNtB2_12ModbusClient24write_multiple_registers
FNDA:0,_RNvMNtCs8Qt6rdyaNFv_7phaeton6modbusNtB2_12ModbusClient7connect
FNDA:0,_RNvMs_NtCs8Qt6rdyaNFv_7phaeton6modbusNtB4_23ModbusConnectionManager19is_connection_error
FNDA:0,_RNvMs_NtCs8Qt6rdyaNFv_7phaeton6modbusNtB4_23ModbusConnectionManager3new
FNDA:1,_RNvMNtCs8Qt6rdyaNFv_7phaeton6modbusNtB2_12ModbusClient12is_connected
FNDA:1,_RNvMNtCs8Qt6rdyaNFv_7phaeton6modbusNtB2_12ModbusClient3new
FNDA:1,_RNvNtCs8Qt6rdyaNFv_7phaeton6modbus13decode_string
FNDA:1,_RNvNtCs8Qt6rdyaNFv_7phaeton6modbus18decode_32bit_float
FNDA:1,_RNvNtCs8Qt6rdyaNFv_7phaeton6modbus18decode_64bit_float
FNDA:1,_RNvNtCs8Qt6rdyaNFv_7phaeton6modbus18encode_32bit_float
FNDA:0,_RNCNvNtCs8Qt6rdyaNFv_7phaeton6modbus13decode_string0B5_
FNDA:1,_RNvNtNtCs8Qt6rdyaNFv_7phaeton6modbus5testss_18test_decode_string
FNDA:1,_RNvNtNtCs8Qt6rdyaNFv_7phaeton6modbus5testss_18test_modbus_config
FNDA:1,_RNvNtNtCs8Qt6rdyaNFv_7phaeton6modbus5testss_23test_decode_32bit_float
FNDA:1,_RNvNtNtCs8Qt6rdyaNFv_7phaeton6modbus5testss_23test_decode_64bit_float
FNDA:1,_RNvNtNtCs8Qt6rdyaNFv_7phaeton6modbus5testss_23test_encode_32bit_float
FNDA:1,_RNvNtNtCs8Qt6rdyaNFv_7phaeton6modbus5testss_27test_modbus_client_creation
FNF:30
FNH:12
DA:36,2
DA:37,2
DA:38,2
DA:39,2
DA:40,2
DA:41,2
DA:42,2
DA:43,2
DA:44,2
DA:45,2
DA:48,0
DA:49,0
DA:51,0
DA:52,0
DA:54,0
DA:55,0
DA:56,0
DA:58,0
DA:59,0
DA:60,0
DA:61,0
DA:62,0
DA:64,0
DA:65,0
DA:66,0
DA:67,0
DA:70,0
DA:71,0
DA:72,0
DA:75,0
DA:78,0
DA:79,0
DA:80,0
DA:82,0
DA:84,0
DA:86,0
DA:89,2
DA:90,2
DA:91,2
DA:94,0
DA:95,0
DA:96,0
DA:97,0
DA:98,0
DA:99,0
DA:100,0
DA:103,0
DA:104,0
DA:105,0
DA:106,0
DA:108,0
DA:110,0
DA:111,0
DA:113,0
DA:114,0
DA:115,0
DA:116,0
DA:117,0
DA:118,0
DA:119,0
DA:120,0
DA:121,0
DA:123,0
DA:124,0
DA:125,0
DA:128,0
DA:129,0
DA:132,0
DA:133,0
DA:134,0
DA:135,0
DA:138,0
DA:139,0
DA:140,0
DA:143,0
DA:146,0
DA:147,0
DA:148,0
DA:149,0
DA:150,0
DA:151,0
DA:152,0
DA:155,0
DA:156,0
DA:157,0
DA:158,0
DA:160,0
DA:161,0
DA:162,0
DA:164,0
DA:165,0
DA:167,0
DA:168,0
DA:170,0
DA:171,0
DA:172,0
DA:173,0
DA:174,0
DA:177,0
DA:178,0
DA:179,0
DA:180,0
DA:183,0
DA:184,0
DA:185,0
DA:188,0
DA:191,0
DA:192,0
DA:193,0
DA:194,0
DA:195,0
DA:196,0
DA:197,0
DA:200,0
DA:201,0
DA:202,0
DA:203,0
DA:204,0
DA:205,0
DA:207,0
DA:208,0
DA:209,0
DA:211,0
DA:212,0
DA:214,0
DA:215,0
DA:217,0
DA:218,0
DA:219,0
DA:222,0
DA:223,0
DA:226,0
DA:227,0
DA:228,0
DA:229,0
DA:232,0
DA:233,0
DA:234,0
DA:237,0
DA:240,0
DA:241,0
DA:242,0
DA:243,0
DA:244,0
DA:249,1
DA:250,1
DA:251,0
DA:252,0
DA:253,0
DA:254,1
DA:256,1
DA:257,1
DA:258,1
DA:259,1
DA:260,1
DA:261,1
DA:263,1
DA:264,1
DA:265,1
DA:268,1
DA:269,1
DA:270,0
DA:271,0
DA:272,0
DA:273,1
DA:275,1
DA:276,1
DA:277,1
DA:278,1
DA:279,1
DA:280,1
DA:281,1
DA:282,1
DA:283,1
DA:284,1
DA:286,1
DA:287,1
DA:288,1
DA:291,1
DA:292,1
DA:294,4
DA:295,3
DA:296,3
DA:299,3
DA:300,0
DA:301,3
DA:302,3
DA:303,3
DA:304,3
DA:308,1
DA:309,1
DA:311,1
DA:313,1
DA:314,0
DA:316,1
DA:318,1
DA:321,1
DA:322,1
DA:323,1
DA:324,1
DA:325,1
DA:326,1
DA:327,1
DA:341,0
DA:342,0
DA:343,0
DA:344,0
DA:345,0
DA:346,0
DA:347,0
DA:348,0
DA:349,0
DA:350,0
DA:353,0
DA:354,0
DA:355,0
DA:356,0
DA:357,0
DA:361,0
DA:362,0
DA:364,0
DA:365,0
DA:366,0
DA:367,0
DA:368,0
DA:369,0
DA:370,0
DA:371,0
DA:372,0
DA:375,0
DA:376,0
DA:377,0
DA:379,0
DA:380,0
DA:381,0
DA:382,0
DA:383,0
DA:384,0
DA:385,0
DA:386,0
DA:387,0
DA:388,0
DA:390,0
DA:395,0
DA:398,0
DA:399,0
DA:400,0
DA:401,0
DA:402,0
DA:403,0
DA:404,0
DA:406,0
DA:407,0
DA:409,0
DA:418,1
DA:419,1
DA:420,1
DA:421,1
DA:422,1
DA:425,1
DA:426,1
DA:427,1
DA:428,1
DA:429,1
DA:432,1
DA:433,1
DA:434,1
DA:435,1
DA:436,1
DA:439,1
DA:440,1
DA:441,1
DA:442,1
DA:443,1
DA:446,1
DA:447,1
DA:448,1
DA:449,1
DA:450,1
DA:451,1
DA:454,1
DA:455,1
DA:456,1
DA:457,1
DA:458,1
BRF:0
BRH:0
LF:293
LH:95
end_of_record
SF:/Users/ron/Git/phaeton/src/persistence.rs
FN:136,_RNvMNtCsgT6CZGVyCTz_7phaeton11persistenceNtB2_18PersistenceManager11get_section
FN:144,_RNvMNtCsgT6CZGVyCTz_7phaeton11persistenceNtB2_18PersistenceManager11set_section
FN:81,_RNvMNtCsgT6CZGVyCTz_7phaeton11persistenceNtB2_18PersistenceManager14set_start_stop
FN:85,_RNvMNtCsgT6CZGVyCTz_7phaeton11persistenceNtB2_18PersistenceManager15set_set_current
FN:89,_RNvMNtCsgT6CZGVyCTz_7phaeton11persistenceNtB2_18PersistenceManager28set_insufficient_solar_start
FN:39,_RNvMNtCsgT6CZGVyCTz_7phaeton11persistenceNtB2_18PersistenceManager3new
FN:51,_RNvMNtCsgT6CZGVyCTz_7phaeton11persistenceNtB2_18PersistenceManager4load
FN:68,_RNvMNtCsgT6CZGVyCTz_7phaeton11persistenceNtB2_18PersistenceManager4save
FN:114,_RNvMNtCsgT6CZGVyCTz_7phaeton11persistenceNtB2_18PersistenceManager6update
FN:77,_RNvMNtCsgT6CZGVyCTz_7phaeton11persistenceNtB2_18PersistenceManager8set_mode
FN:153,_RNvXs_NtCsgT6CZGVyCTz_7phaeton11persistenceNtB4_15PersistentStateNtNtCsaNl6UpbT7bw_4core7default7Default7default
FN:94,_RINvMNtCsgT6CZGVyCTz_7phaeton11persistenceNtB3_18PersistenceManager3getpEB5_
FN:108,_RINvMNtCsgT6CZGVyCTz_7phaeton11persistenceNtB3_18PersistenceManager3setpEB5_
FN:116,_RNCNvMNtCsgT6CZGVyCTz_7phaeton11persistenceNtB4_18PersistenceManager6update0B6_
FN:122,_RNCNvMNtCsgT6CZGVyCTz_7phaeton11persistenceNtB4_18PersistenceManager6updates0_0B6_
FN:125,_RNCNvMNtCsgT6CZGVyCTz_7phaeton11persistenceNtB4_18PersistenceManager6updates1_0B6_
FN:119,_RNCNvMNtCsgT6CZGVyCTz_7phaeton11persistenceNtB4_18PersistenceManager6updates_0B6_
FN:94,_RINvMNtCsgT6CZGVyCTz_7phaeton11persistenceNtB3_18PersistenceManager3getdECsjHWcKYsgt7y_16persistence_test
FN:94,_RINvMNtCsgT6CZGVyCTz_7phaeton11persistenceNtB3_18PersistenceManager3getfECsjHWcKYsgt7y_16persistence_test
FN:94,_RINvMNtCsgT6CZGVyCTz_7phaeton11persistenceNtB3_18PersistenceManager3getmECsjHWcKYsgt7y_16persistence_test
FN:94,_RINvMNtCsgT6CZGVyCTz_7phaeton11persistenceNtB3_18PersistenceManager3getfECs4JsBA7u6QVm_7phaeton
FN:94,_RINvMNtCsgT6CZGVyCTz_7phaeton11persistenceNtB3_18PersistenceManager3getmECs4JsBA7u6QVm_7phaeton
FN:94,_RINvMNtCs8Qt6rdyaNFv_7phaeton11persistenceNtB3_18PersistenceManager3getpEB5_
FN:108,_RINvMNtCs8Qt6rdyaNFv_7phaeton11persistenceNtB3_18PersistenceManager3setpEB5_
FN:116,_RNCNvMNtCs8Qt6rdyaNFv_7phaeton11persistenceNtB4_18PersistenceManager6update0B6_
FN:122,_RNCNvMNtCs8Qt6rdyaNFv_7phaeton11persistenceNtB4_18PersistenceManager6updates0_0B6_
FN:125,_RNCNvMNtCs8Qt6rdyaNFv_7phaeton11persistenceNtB4_18PersistenceManager6updates1_0B6_
FN:119,_RNCNvMNtCs8Qt6rdyaNFv_7phaeton11persistenceNtB4_18PersistenceManager6updates_0B6_
FN:136,_RNvMNtCs8Qt6rdyaNFv_7phaeton11persistenceNtB2_18PersistenceManager11get_section
FN:144,_RNvMNtCs8Qt6rdyaNFv_7phaeton11persistenceNtB2_18PersistenceManager11set_section
FN:81,_RNvMNtCs8Qt6rdyaNFv_7phaeton11persistenceNtB2_18PersistenceManager14set_start_stop
FN:85,_RNvMNtCs8Qt6rdyaNFv_7phaeton11persistenceNtB2_18PersistenceManager15set_set_current
FN:89,_RNvMNtCs8Qt6rdyaNFv_7phaeton11persistenceNtB2_18PersistenceManager28set_insufficient_solar_start
FN:39,_RNvMNtCs8Qt6rdyaNFv_7phaeton11persistenceNtB2_18PersistenceManager3new
FN:51,_RNvMNtCs8Qt6rdyaNFv_7phaeton11persistenceNtB2_18PersistenceManager4load
FN:68,_RNvMNtCs8Qt6rdyaNFv_7phaeton11persistenceNtB2_18PersistenceManager4save
FN:114,_RNvMNtCs8Qt6rdyaNFv_7phaeton11persistenceNtB2_18PersistenceManager6update
FN:77,_RNvMNtCs8Qt6rdyaNFv_7phaeton11persistenceNtB2_18PersistenceManager8set_mode
FN:153,_RNvXs_NtCs8Qt6rdyaNFv_7phaeton11persistenceNtB4_15PersistentStateNtNtCsaNl6UpbT7bw_4core7default7Default7default
FNDA:1,_RNvMNtCsgT6CZGVyCTz_7phaeton11persistenceNtB2_18PersistenceManager11get_section
FNDA:0,_RNvMNtCsgT6CZGVyCTz_7phaeton11persistenceNtB2_18PersistenceManager11set_section
FNDA:1,_RNvMNtCsgT6CZGVyCTz_7phaeton11persistenceNtB2_18PersistenceManager14set_start_stop
FNDA:1,_RNvMNtCsgT6CZGVyCTz_7phaeton11persistenceNtB2_18PersistenceManager15set_set_current
FNDA:1,_RNvMNtCsgT6CZGVyCTz_7phaeton11persistenceNtB2_18PersistenceManager28set_insufficient_solar_start
FNDA:3,_RNvMNtCsgT6CZGVyCTz_7phaeton11persistenceNtB2_18PersistenceManager3new
FNDA:1,_RNvMNtCsgT6CZGVyCTz_7phaeton11persistenceNtB2_18PersistenceManager4load
FNDA:1,_RNvMNtCsgT6CZGVyCTz_7phaeton11persistenceNtB2_18PersistenceManager4save
FNDA:1,_RNvMNtCsgT6CZGVyCTz_7phaeton11persistenceNtB2_18PersistenceManager6update
FNDA:1,_RNvMNtCsgT6CZGVyCTz_7phaeton11persistenceNtB2_18PersistenceManager8set_mode
FNDA:4,_RNvXs_NtCsgT6CZGVyCTz_7phaeton11persistenceNtB4_15PersistentStateNtNtCsaNl6UpbT7bw_4core7default7Default7default
FNDA:0,_RINvMNtCsgT6CZGVyCTz_7phaeton11persistenceNtB3_18PersistenceManager3getpEB5_
FNDA:0,_RINvMNtCsgT6CZGVyCTz_7phaeton11persistenceNtB3_18PersistenceManager3setpEB5_
FNDA:1,_RNCNvMNtCsgT6CZGVyCTz_7phaeton11persistenceNtB4_18PersistenceManager6update0B6_
FNDA:1,_RNCNvMNtCsgT6CZGVyCTz_7phaeton11persistenceNtB4_18PersistenceManager6updates0_0B6_
FNDA:1,_RNCNvMNtCsgT6CZGVyCTz_7phaeton11persistenceNtB4_18PersistenceManager6updates1_0B6_
FNDA:1,_RNCNvMNtCsgT6CZGVyCTz_7phaeton11persistenceNtB4_18PersistenceManager6updates_0B6_
FNDA:2,_RINvMNtCsgT6CZGVyCTz_7phaeton11persistenceNtB3_18PersistenceManager3getdECsjHWcKYsgt7y_16persistence_test
FNDA:2,_RINvMNtCsgT6CZGVyCTz_7phaeton11persistenceNtB3_18PersistenceManager3getfECsjHWcKYsgt7y_16persistence_test
FNDA:4,_RINvMNtCsgT6CZGVyCTz_7phaeton11persistenceNtB3_18PersistenceManager3getmECsjHWcKYsgt7y_16persistence_test
FNDA:0,_RINvMNtCsgT6CZGVyCTz_7phaeton11persistenceNtB3_18PersistenceManager3getfECs4JsBA7u6QVm_7phaeton
FNDA:0,_RINvMNtCsgT6CZGVyCTz_7phaeton11persistenceNtB3_18PersistenceManager3getmECs4JsBA7u6QVm_7phaeton
FNDA:0,_RINvMNtCs8Qt6rdyaNFv_7phaeton11persistenceNtB3_18PersistenceManager3getpEB5_
FNDA:0,_RINvMNtCs8Qt6rdyaNFv_7phaeton11persistenceNtB3_18PersistenceManager3setpEB5_
FNDA:0,_RNCNvMNtCs8Qt6rdyaNFv_7phaeton11persistenceNtB4_18PersistenceManager6update0B6_
FNDA:0,_RNCNvMNtCs8Qt6rdyaNFv_7phaeton11persistenceNtB4_18PersistenceManager6updates0_0B6_
FNDA:0,_RNCNvMNtCs8Qt6rdyaNFv_7phaeton11persistenceNtB4_18PersistenceManager6updates1_0B6_
FNDA:0,_RNCNvMNtCs8Qt6rdyaNFv_7phaeton11persistenceNtB4_18PersistenceManager6updates_0B6_
FNDA:0,_RNvMNtCs8Qt6rdyaNFv_7phaeton11persistenceNtB2_18PersistenceManager11get_section
FNDA:0,_RNvMNtCs8Qt6rdyaNFv_7phaeton11persistenceNtB2_18PersistenceManager11set_section
FNDA:0,_RNvMNtCs8Qt6rdyaNFv_7phaeton11persistenceNtB2_18PersistenceManager14set_start_stop
FNDA:0,_RNvMNtCs8Qt6rdyaNFv_7phaeton11persistenceNtB2_18PersistenceManager15set_set_current
FNDA:0,_RNvMNtCs8Qt6rdyaNFv_7phaeton11persistenceNtB2_18PersistenceManager28set_insufficient_solar_start
FNDA:0,_RNvMNtCs8Qt6rdyaNFv_7phaeton11persistenceNtB2_18PersistenceManager3new
FNDA:0,_RNvMNtCs8Qt6rdyaNFv_7phaeton11persistenceNtB2_18PersistenceManager4load
FNDA:0,_RNvMNtCs8Qt6rdyaNFv_7phaeton11persistenceNtB2_18PersistenceManager4save
FNDA:0,_RNvMNtCs8Qt6rdyaNFv_7phaeton11persistenceNtB2_18PersistenceManager6update
FNDA:0,_RNvMNtCs8Qt6rdyaNFv_7phaeton11persistenceNtB2_18PersistenceManager8set_mode
FNDA:0,_RNvXs_NtCs8Qt6rdyaNFv_7phaeton11persistenceNtB4_15PersistentStateNtNtCsaNl6UpbT7bw_4core7default7Default7default
FNF:17
FNH:15
DA:39,3
DA:40,3
DA:41,3
DA:43,3
DA:44,3
DA:45,3
DA:46,3
DA:47,3
DA:48,3
DA:51,1
DA:52,1
DA:54,1
DA:55,0
DA:56,0
DA:57,0
DA:58,1
DA:60,1
DA:61,1
DA:62,1
DA:64,1
DA:65,1
DA:68,1
DA:69,1
DA:70,1
DA:71,1
DA:73,1
DA:74,1
DA:77,1
DA:78,1
DA:79,1
DA:81,1
DA:82,1
DA:83,1
DA:85,1
DA:86,1
DA:87,1
DA:89,1
DA:90,1
DA:91,1
DA:94,8
DA:95,8
DA:96,8
DA:97,6
DA:98,4
DA:99,2
DA:100,2
DA:102,0
DA:104,8
DA:105,8
DA:108,0
DA:110,0
DA:111,0
DA:114,1
DA:115,1
DA:116,1
DA:117,1
DA:118,1
DA:119,1
DA:120,1
DA:121,1
DA:122,1
DA:123,1
DA:124,1
DA:125,1
DA:126,1
DA:127,1
DA:128,1
DA:129,1
DA:130,1
DA:131,0
DA:132,1
DA:133,1
DA:136,1
DA:137,1
DA:138,1
DA:139,0
DA:141,1
DA:144,0
DA:145,0
DA:146,0
DA:147,0
DA:148,0
DA:149,0
DA:153,4
DA:154,4
DA:155,4
DA:156,4
DA:157,4
DA:158,4
DA:159,4
DA:160,4
DA:161,4
BRF:0
BRH:0
LF:96
LH:81
end_of_record
SF:/Users/ron/Git/phaeton/src/session.rs
FN:141,_RNvMNtCsgT6CZGVyCTz_7phaeton7sessionNtB2_22ChargingSessionManager11end_session
FN:227,_RNvMNtCsgT6CZGVyCTz_7phaeton7sessionNtB2_22ChargingSessionManager13restore_state
FN:94,_RNvMNtCsgT6CZGVyCTz_7phaeton7sessionNtB2_22ChargingSessionManager13start_session
FN:170,_RNvMNtCsgT6CZGVyCTz_7phaeton7sessionNtB2_22ChargingSessionManager17get_session_stats
FN:251,_RNvMNtCsgT6CZGVyCTz_7phaeton7sessionNtB2_22ChargingSessionManager24set_cost_on_last_session
FN:81,_RNvMNtCsgT6CZGVyCTz_7phaeton7sessionNtB2_22ChargingSessionManager3new
FN:120,_RNvMNtCsgT6CZGVyCTz_7phaeton7sessionNtB2_22ChargingSessionManager6update
FN:193,_RNvMNtCsgT6CZGVyCTz_7phaeton7sessionNtB2_22ChargingSessionManager9get_state
FN:259,_RNvXs_NtCsgT6CZGVyCTz_7phaeton7sessionNtB4_22ChargingSessionManagerNtNtCsaNl6UpbT7bw_4core7default7Default7default
FN:141,_RNvMNtCs8Qt6rdyaNFv_7phaeton7sessionNtB2_22ChargingSessionManager11end_session
FN:227,_RNvMNtCs8Qt6rdyaNFv_7phaeton7sessionNtB2_22ChargingSessionManager13restore_state
FN:94,_RNvMNtCs8Qt6rdyaNFv_7phaeton7sessionNtB2_22ChargingSessionManager13start_session
FN:170,_RNvMNtCs8Qt6rdyaNFv_7phaeton7sessionNtB2_22ChargingSessionManager17get_session_stats
FN:251,_RNvMNtCs8Qt6rdyaNFv_7phaeton7sessionNtB2_22ChargingSessionManager24set_cost_on_last_session
FN:81,_RNvMNtCs8Qt6rdyaNFv_7phaeton7sessionNtB2_22ChargingSessionManager3new
FN:120,_RNvMNtCs8Qt6rdyaNFv_7phaeton7sessionNtB2_22ChargingSessionManager6update
FN:193,_RNvMNtCs8Qt6rdyaNFv_7phaeton7sessionNtB2_22ChargingSessionManager9get_state
FN:259,_RNvXs_NtCs8Qt6rdyaNFv_7phaeton7sessionNtB4_22ChargingSessionManagerNtNtCsaNl6UpbT7bw_4core7default7Default7default
FNDA:1,_RNvMNtCsgT6CZGVyCTz_7phaeton7sessionNtB2_22ChargingSessionManager11end_session
FNDA:0,_RNvMNtCsgT6CZGVyCTz_7phaeton7sessionNtB2_22ChargingSessionManager13restore_state
FNDA:1,_RNvMNtCsgT6CZGVyCTz_7phaeton7sessionNtB2_22ChargingSessionManager13start_session
FNDA:1,_RNvMNtCsgT6CZGVyCTz_7phaeton7sessionNtB2_22ChargingSessionManager17get_session_stats
FNDA:0,_RNvMNtCsgT6CZGVyCTz_7phaeton7sessionNtB2_22ChargingSessionManager24set_cost_on_last_session
FNDA:1,_RNvMNtCsgT6CZGVyCTz_7phaeton7sessionNtB2_22ChargingSessionManager3new
FNDA:1,_RNvMNtCsgT6CZGVyCTz_7phaeton7sessionNtB2_22ChargingSessionManager6update
FNDA:1,_RNvMNtCsgT6CZGVyCTz_7phaeton7sessionNtB2_22ChargingSessionManager9get_state
FNDA:1,_RNvXs_NtCsgT6CZGVyCTz_7phaeton7sessionNtB4_22ChargingSessionManagerNtNtCsaNl6UpbT7bw_4core7default7Default7default
FNDA:0,_RNvMNtCs8Qt6rdyaNFv_7phaeton7sessionNtB2_22ChargingSessionManager11end_session
FNDA:0,_RNvMNtCs8Qt6rdyaNFv_7phaeton7sessionNtB2_22ChargingSessionManager13restore_state
FNDA:0,_RNvMNtCs8Qt6rdyaNFv_7phaeton7sessionNtB2_22ChargingSessionManager13start_session
FNDA:0,_RNvMNtCs8Qt6rdyaNFv_7phaeton7sessionNtB2_22ChargingSessionManager17get_session_stats
FNDA:0,_RNvMNtCs8Qt6rdyaNFv_7phaeton7sessionNtB2_22ChargingSessionManager24set_cost_on_last_session
FNDA:0,_RNvMNtCs8Qt6rdyaNFv_7phaeton7sessionNtB2_22ChargingSessionManager3new
FNDA:0,_RNvMNtCs8Qt6rdyaNFv_7phaeton7sessionNtB2_22ChargingSessionManager6update
FNDA:0,_RNvMNtCs8Qt6rdyaNFv_7phaeton7sessionNtB2_22ChargingSessionManager9get_state
FNDA:0,_RNvXs_NtCs8Qt6rdyaNFv_7phaeton7sessionNtB4_22ChargingSessionManagerNtNtCsaNl6UpbT7bw_4core7default7Default7default
FNF:9
FNH:7
DA:81,1
DA:82,1
DA:84,1
DA:85,1
DA:86,1
DA:87,1
DA:88,1
DA:89,1
DA:90,1
DA:91,1
DA:94,1
DA:95,1
DA:96,0
DA:97,1
DA:99,1
DA:100,1
DA:101,1
DA:102,1
DA:103,1
DA:104,1
DA:105,1
DA:106,1
DA:107,1
DA:108,1
DA:109,1
DA:110,1
DA:112,1
DA:113,1
DA:114,1
DA:116,1
DA:117,1
DA:120,1
DA:121,1
DA:123,1
DA:126,1
DA:127,1
DA:128,1
DA:131,1
DA:132,1
DA:133,0
DA:134,1
DA:135,0
DA:137,1
DA:138,1
DA:141,1
DA:142,1
DA:143,1
DA:144,1
DA:145,1
DA:146,1
DA:147,1
DA:150,1
DA:153,1
DA:154,1
DA:155,0
DA:156,1
DA:158,1
DA:159,1
DA:160,1
DA:161,1
DA:163,1
DA:165,0
DA:167,1
DA:170,1
DA:171,1
DA:173,1
DA:174,1
DA:175,1
DA:176,1
DA:177,1
DA:178,1
DA:179,1
DA:180,1
DA:181,1
DA:182,1
DA:183,1
DA:184,0
DA:185,0
DA:186,0
DA:187,0
DA:189,1
DA:190,1
DA:193,1
DA:194,1
DA:196,1
DA:197,0
DA:198,0
DA:199,0
DA:200,0
DA:201,1
DA:202,1
DA:203,1
DA:205,1
DA:206,1
DA:207,1
DA:208,1
DA:209,1
DA:210,1
DA:211,0
DA:212,0
DA:215,1
DA:216,1
DA:217,1
DA:218,1
DA:219,1
DA:220,1
DA:223,1
DA:224,1
DA:227,0
DA:228,0
DA:229,0
DA:230,0
DA:231,0
DA:232,0
DA:233,0
DA:234,0
DA:235,0
DA:236,0
DA:237,0
DA:238,0
DA:239,0
DA:240,0
DA:241,0
DA:242,0
DA:243,0
DA:244,0
DA:245,0
DA:246,0
DA:247,0
DA:248,0
DA:251,0
DA:252,0
DA:253,0
DA:254,0
DA:255,0
DA:259,1
DA:260,1
DA:261,1
BRF:0
BRH:0
LF:138
LH:96
end_of_record
SF:/Users/ron/Git/phaeton/src/tibber.rs
FN:37,_RNCNvMNtCsgT6CZGVyCTz_7phaeton6tibberNtB4_12TibberClient13should_charge0B6_
FN:31,_RNCNvMNtCsgT6CZGVyCTz_7phaeton6tibberNtB4_12TibberClient19get_hourly_overview0B6_
FN:37,_RNvMNtCsgT6CZGVyCTz_7phaeton6tibberNtB2_12TibberClient13should_charge
FN:31,_RNvMNtCsgT6CZGVyCTz_7phaeton6tibberNtB2_12TibberClient19get_hourly_overview
FN:21,_RNvMNtCsgT6CZGVyCTz_7phaeton6tibberNtB2_12TibberClient3new
FN:37,_RNCNvMNtCs8Qt6rdyaNFv_7phaeton6tibberNtB4_12TibberClient13should_charge0B6_
FN:31,_RNCNvMNtCs8Qt6rdyaNFv_7phaeton6tibberNtB4_12TibberClient19get_hourly_overview0B6_
FN:37,_RNvMNtCs8Qt6rdyaNFv_7phaeton6tibberNtB2_12TibberClient13should_charge
FN:31,_RNvMNtCs8Qt6rdyaNFv_7phaeton6tibberNtB2_12TibberClient19get_hourly_overview
FN:21,_RNvMNtCs8Qt6rdyaNFv_7phaeton6tibberNtB2_12TibberClient3new
FN:37,_RNCNvMNtCsgT6CZGVyCTz_7phaeton6tibberNtB4_12TibberClient13should_charge0Cs3L61wvqtXEg_11tibber_test
FN:31,_RNCNvMNtCsgT6CZGVyCTz_7phaeton6tibberNtB4_12TibberClient19get_hourly_overview0Cs3L61wvqtXEg_11tibber_test
FNDA:0,_RNCNvMNtCsgT6CZGVyCTz_7phaeton6tibberNtB4_12TibberClient13should_charge0B6_
FNDA:0,_RNCNvMNtCsgT6CZGVyCTz_7phaeton6tibberNtB4_12TibberClient19get_hourly_overview0B6_
FNDA:1,_RNvMNtCsgT6CZGVyCTz_7phaeton6tibberNtB2_12TibberClient13should_charge
FNDA:1,_RNvMNtCsgT6CZGVyCTz_7phaeton6tibberNtB2_12TibberClient19get_hourly_overview
FNDA:1,_RNvMNtCsgT6CZGVyCTz_7phaeton6tibberNtB2_12TibberClient3new
FNDA:0,_RNCNvMNtCs8Qt6rdyaNFv_7phaeton6tibberNtB4_12TibberClient13should_charge0B6_
FNDA:0,_RNCNvMNtCs8Qt6rdyaNFv_7phaeton6tibberNtB4_12TibberClient19get_hourly_overview0B6_
FNDA:0,_RNvMNtCs8Qt6rdyaNFv_7phaeton6tibberNtB2_12TibberClient13should_charge
FNDA:0,_RNvMNtCs8Qt6rdyaNFv_7phaeton6tibberNtB2_12TibberClient19get_hourly_overview
FNDA:0,_RNvMNtCs8Qt6rdyaNFv_7phaeton6tibberNtB2_12TibberClient3new
FNDA:1,_RNCNvMNtCsgT6CZGVyCTz_7phaeton6tibberNtB4_12TibberClient13should_charge0Cs3L61wvqtXEg_11tibber_test
FNDA:1,_RNCNvMNtCsgT6CZGVyCTz_7phaeton6tibberNtB4_12TibberClient19get_hourly_overview0Cs3L61wvqtXEg_11tibber_test
FNF:5
FNH:5
DA:21,1
DA:22,1
DA:23,1
DA:24,1
DA:25,1
DA:26,1
DA:27,1
DA:28,1
DA:31,1
DA:33,1
DA:34,1
DA:37,1
DA:39,1
DA:40,1
BRF:0
BRH:0
LF:16
LH:16
end_of_record
SF:/Users/ron/Git/phaeton/src/updater.rs
FN:67,_RNvMNtCsgT6CZGVyCTz_7phaeton7updaterNtB2_10GitUpdater10get_status
FN:59,_RNvMNtCsgT6CZGVyCTz_7phaeton7updaterNtB2_10GitUpdater13apply_updates
FN:42,_RNvMNtCsgT6CZGVyCTz_7phaeton7updaterNtB2_10GitUpdater17check_for_updates
FN:32,_RNvMNtCsgT6CZGVyCTz_7phaeton7updaterNtB2_10GitUpdater3new
FN:59,_RNCNvMNtCsgT6CZGVyCTz_7phaeton7updaterNtB4_10GitUpdater13apply_updates0B6_
FN:42,_RNCNvMNtCsgT6CZGVyCTz_7phaeton7updaterNtB4_10GitUpdater17check_for_updates0B6_
FN:59,_RNCNvMNtCs8Qt6rdyaNFv_7phaeton7updaterNtB4_10GitUpdater13apply_updates0B6_
FN:42,_RNCNvMNtCs8Qt6rdyaNFv_7phaeton7updaterNtB4_10GitUpdater17check_for_updates0B6_
FN:67,_RNvMNtCs8Qt6rdyaNFv_7phaeton7updaterNtB2_10GitUpdater10get_status
FN:59,_RNvMNtCs8Qt6rdyaNFv_7phaeton7updaterNtB2_10GitUpdater13apply_updates
FN:42,_RNvMNtCs8Qt6rdyaNFv_7phaeton7updaterNtB2_10GitUpdater17check_for_updates
FN:32,_RNvMNtCs8Qt6rdyaNFv_7phaeton7updaterNtB2_10GitUpdater3new
FNDA:1,_RNvMNtCsgT6CZGVyCTz_7phaeton7updaterNtB2_10GitUpdater10get_status
FNDA:1,_RNvMNtCsgT6CZGVyCTz_7phaeton7updaterNtB2_10GitUpdater13apply_updates
FNDA:1,_RNvMNtCsgT6CZGVyCTz_7phaeton7updaterNtB2_10GitUpdater17check_for_updates
FNDA:2,_RNvMNtCsgT6CZGVyCTz_7phaeton7updaterNtB2_10GitUpdater3new
FNDA:1,_RNCNvMNtCsgT6CZGVyCTz_7phaeton7updaterNtB4_10GitUpdater13apply_updates0B6_
FNDA:1,_RNCNvMNtCsgT6CZGVyCTz_7phaeton7updaterNtB4_10GitUpdater17check_for_updates0B6_
FNDA:0,_RNCNvMNtCs8Qt6rdyaNFv_7phaeton7updaterNtB4_10GitUpdater13apply_updates0B6_
FNDA:0,_RNCNvMNtCs8Qt6rdyaNFv_7phaeton7updaterNtB4_10GitUpdater17check_for_updates0B6_
FNDA:0,_RNvMNtCs8Qt6rdyaNFv_7phaeton7updaterNtB2_10GitUpdater10get_status
FNDA:0,_RNvMNtCs8Qt6rdyaNFv_7phaeton7updaterNtB2_10GitUpdater13apply_updates
FNDA:0,_RNvMNtCs8Qt6rdyaNFv_7phaeton7updaterNtB2_10GitUpdater17check_for_updates
FNDA:0,_RNvMNtCs8Qt6rdyaNFv_7phaeton7updaterNtB2_10GitUpdater3new
FNF:6
FNH:6
DA:32,2
DA:33,2
DA:34,2
DA:35,2
DA:36,2
DA:37,2
DA:38,2
DA:39,2
DA:42,1
DA:44,1
DA:45,1
DA:46,1
DA:47,1
DA:48,1
DA:49,1
DA:50,1
DA:51,1
DA:52,1
DA:53,1
DA:54,1
DA:55,1
DA:56,1
DA:59,1
DA:61,1
DA:62,1
DA:63,1
DA:64,1
DA:67,1
DA:68,1
DA:69,1
DA:70,1
DA:71,1
DA:72,1
DA:73,1
DA:74,1
DA:75,1
BRF:0
BRH:0
LF:38
LH:38
end_of_record
SF:/Users/ron/Git/phaeton/src/vehicle.rs
FN:50,_RNvMNtCsgT6CZGVyCTz_7phaeton7vehicleNtB2_18TeslaVehicleClient3new
FN:132,_RNvMs0_NtCsgT6CZGVyCTz_7phaeton7vehicleNtB5_18VehicleIntegration3new
FN:148,_RNvMs2_NtCsgT6CZGVyCTz_7phaeton7vehicleNtB5_18VehicleIntegration10set_client
FN:152,_RNvMs2_NtCsgT6CZGVyCTz_7phaeton7vehicleNtB5_18VehicleIntegration20fetch_vehicle_status
FN:95,_RNvMs_NtCsgT6CZGVyCTz_7phaeton7vehicleNtB4_16KiaVehicleClient3new
FN:142,_RNvXs1_NtCsgT6CZGVyCTz_7phaeton7vehicleNtB5_18VehicleIntegrationNtNtCsaNl6UpbT7bw_4core7default7Default7default
FN:63,_RNvXs7_NtCsgT6CZGVyCTz_7phaeton7vehicleNtB5_18TeslaVehicleClientNtB5_13VehicleClient12fetch_status
FN:70,_RNvXs7_NtCsgT6CZGVyCTz_7phaeton7vehicleNtB5_18TeslaVehicleClientNtB5_13VehicleClient7wake_up
FN:118,_RNvXs8_NtCsgT6CZGVyCTz_7phaeton7vehicleNtB5_16KiaVehicleClientNtB5_13VehicleClient12fetch_status
FN:152,_RNCNvMs2_NtCsgT6CZGVyCTz_7phaeton7vehicleNtB7_18VehicleIntegration20fetch_vehicle_status0B9_
FN:32,_RNvYpNtNtCsgT6CZGVyCTz_7phaeton7vehicle13VehicleClient7wake_upB7_
FN:152,_RNCNvMs2_NtCs8Qt6rdyaNFv_7phaeton7vehicleNtB7_18VehicleIntegration20fetch_vehicle_status0B9_
FN:50,_RNvMNtCs8Qt6rdyaNFv_7phaeton7vehicleNtB2_18TeslaVehicleClient3new
FN:132,_RNvMs0_NtCs8Qt6rdyaNFv_7phaeton7vehicleNtB5_18VehicleIntegration3new
FN:148,_RNvMs2_NtCs8Qt6rdyaNFv_7phaeton7vehicleNtB5_18VehicleIntegration10set_client
FN:152,_RNvMs2_NtCs8Qt6rdyaNFv_7phaeton7vehicleNtB5_18VehicleIntegration20fetch_vehicle_status
FN:95,_RNvMs_NtCs8Qt6rdyaNFv_7phaeton7vehicleNtB4_16KiaVehicleClient3new
FN:142,_RNvXs1_NtCs8Qt6rdyaNFv_7phaeton7vehicleNtB5_18VehicleIntegrationNtNtCsaNl6UpbT7bw_4core7default7Default7default
FN:63,_RNvXs7_NtCs8Qt6rdyaNFv_7phaeton7vehicleNtB5_18TeslaVehicleClientNtB5_13VehicleClient12fetch_status
FN:70,_RNvXs7_NtCs8Qt6rdyaNFv_7phaeton7vehicleNtB5_18TeslaVehicleClientNtB5_13VehicleClient7wake_up
FN:118,_RNvXs8_NtCs8Qt6rdyaNFv_7phaeton7vehicleNtB5_16KiaVehicleClientNtB5_13VehicleClient12fetch_status
FN:32,_RNvYpNtNtCs8Qt6rdyaNFv_7phaeton7vehicle13VehicleClient7wake_upB7_
FN:152,_RNCNvMs2_NtCsgT6CZGVyCTz_7phaeton7vehicleNtB7_18VehicleIntegration20fetch_vehicle_status0Csfc9JusCFlbd_20vehicle_updater_test
FNDA:0,_RNvMNtCsgT6CZGVyCTz_7phaeton7vehicleNtB2_18TeslaVehicleClient3new
FNDA:1,_RNvMs0_NtCsgT6CZGVyCTz_7phaeton7vehicleNtB5_18VehicleIntegration3new
FNDA:0,_RNvMs2_NtCsgT6CZGVyCTz_7phaeton7vehicleNtB5_18VehicleIntegration10set_client
FNDA:1,_RNvMs2_NtCsgT6CZGVyCTz_7phaeton7vehicleNtB5_18VehicleIntegration20fetch_vehicle_status
FNDA:0,_RNvMs_NtCsgT6CZGVyCTz_7phaeton7vehicleNtB4_16KiaVehicleClient3new
FNDA:0,_RNvXs1_NtCsgT6CZGVyCTz_7phaeton7vehicleNtB5_18VehicleIntegrationNtNtCsaNl6UpbT7bw_4core7default7Default7default
FNDA:0,_RNvXs7_NtCsgT6CZGVyCTz_7phaeton7vehicleNtB5_18TeslaVehicleClientNtB5_13VehicleClient12fetch_status
FNDA:0,_RNvXs7_NtCsgT6CZGVyCTz_7phaeton7vehicleNtB5_18TeslaVehicleClientNtB5_13VehicleClient7wake_up
FNDA:0,_RNvXs8_NtCsgT6CZGVyCTz_7phaeton7vehicleNtB5_16KiaVehicleClientNtB5_13VehicleClient12fetch_status
FNDA:0,_RNCNvMs2_NtCsgT6CZGVyCTz_7phaeton7vehicleNtB7_18VehicleIntegration20fetch_vehicle_status0B9_
FNDA:0,_RNvYpNtNtCsgT6CZGVyCTz_7phaeton7vehicle13VehicleClient7wake_upB7_
FNDA:0,_RNCNvMs2_NtCs8Qt6rdyaNFv_7phaeton7vehicleNtB7_18VehicleIntegration20fetch_vehicle_status0B9_
FNDA:0,_RNvMNtCs8Qt6rdyaNFv_7phaeton7vehicleNtB2_18TeslaVehicleClient3new
FNDA:0,_RNvMs0_NtCs8Qt6rdyaNFv_7phaeton7vehicleNtB5_18VehicleIntegration3new
FNDA:0,_RNvMs2_NtCs8Qt6rdyaNFv_7phaeton7vehicleNtB5_18VehicleIntegration10set_client
FNDA:0,_RNvMs2_NtCs8Qt6rdyaNFv_7phaeton7vehicleNtB5_18VehicleIntegration20fetch_vehicle_status
FNDA:0,_RNvMs_NtCs8Qt6rdyaNFv_7phaeton7vehicleNtB4_16KiaVehicleClient3new
FNDA:0,_RNvXs1_NtCs8Qt6rdyaNFv_7phaeton7vehicleNtB5_18VehicleIntegrationNtNtCsaNl6UpbT7bw_4core7default7Default7default
FNDA:0,_RNvXs7_NtCs8Qt6rdyaNFv_7phaeton7vehicleNtB5_18TeslaVehicleClientNtB5_13VehicleClient12fetch_status
FNDA:0,_RNvXs7_NtCs8Qt6rdyaNFv_7phaeton7vehicleNtB5_18TeslaVehicleClientNtB5_13VehicleClient7wake_up
FNDA:0,_RNvXs8_NtCs8Qt6rdyaNFv_7phaeton7vehicleNtB5_16KiaVehicleClientNtB5_13VehicleClient12fetch_status
FNDA:0,_RNvYpNtNtCs8Qt6rdyaNFv_7phaeton7vehicle13VehicleClient7wake_upB7_
FNDA:1,_RNCNvMs2_NtCsgT6CZGVyCTz_7phaeton7vehicleNtB7_18VehicleIntegration20fetch_vehicle_status0Csfc9JusCFlbd_20vehicle_updater_test
FNF:11
FNH:3
DA:32,0
DA:34,0
DA:50,0
DA:51,0
DA:52,0
DA:53,0
DA:54,0
DA:55,0
DA:56,0
DA:57,0
DA:58,0
DA:63,0
DA:68,0
DA:70,0
DA:73,0
DA:95,0
DA:96,0
DA:97,0
DA:98,0
DA:99,0
DA:100,0
DA:101,0
DA:102,0
DA:103,0
DA:104,0
DA:105,0
DA:106,0
DA:107,0
DA:108,0
DA:109,0
DA:110,0
DA:111,0
DA:112,0
DA:113,0
DA:118,0
DA:121,0
DA:132,1
DA:133,1
DA:134,1
DA:135,1
DA:136,1
DA:137,1
DA:138,1
DA:142,0
DA:143,0
DA:144,0
DA:148,0
DA:149,0
DA:150,0
DA:152,1
DA:153,1
DA:154,0
DA:156,1
DA:158,1
BRF:0
BRH:0
LF:55
LH:12
end_of_record
SF:/Users/ron/Git/phaeton/src/web.rs
FN:316,_RNCNCNvNtCsgT6CZGVyCTz_7phaeton3web12build_router00B7_
FN:341,_RNCNCNvNtCsgT6CZGVyCTz_7phaeton3web12build_routers0_00B7_
FN:336,_RNCNCNvNtCsgT6CZGVyCTz_7phaeton3web12build_routers_00B7_
FN:289,_RNCNCNvNtCsgT6CZGVyCTz_7phaeton3web6events00B7_
FN:99,_RNCNvNtCsgT6CZGVyCTz_7phaeton3web10get_config0B5_
FN:114,_RNCNvNtCsgT6CZGVyCTz_7phaeton3web10put_config0B5_
FN:92,_RNCNvNtCsgT6CZGVyCTz_7phaeton3web11set_current0B5_
FN:316,_RNCNvNtCsgT6CZGVyCTz_7phaeton3web12build_router0B5_
FN:341,_RNCNvNtCsgT6CZGVyCTz_7phaeton3web12build_routers0_0B5_
FN:336,_RNCNvNtCsgT6CZGVyCTz_7phaeton3web12build_routers_0B5_
FN:269,_RNCNvNtCsgT6CZGVyCTz_7phaeton3web12update_apply0B5_
FN:254,_RNCNvNtCsgT6CZGVyCTz_7phaeton3web12update_check0B5_
FN:212,_RNCNvNtCsgT6CZGVyCTz_7phaeton3web13logs_download0B5_
FN:82,_RNCNvNtCsgT6CZGVyCTz_7phaeton3web13set_startstop0B5_
FN:243,_RNCNvNtCsgT6CZGVyCTz_7phaeton3web13update_status0B5_
FN:141,_RNCNvNtCsgT6CZGVyCTz_7phaeton3web17get_config_schema0B5_
FN:284,_RNCNvNtCsgT6CZGVyCTz_7phaeton3web6events0B5_
FN:46,_RNCNvNtCsgT6CZGVyCTz_7phaeton3web6health0B5_
FN:53,_RNCNvNtCsgT6CZGVyCTz_7phaeton3web6status0B5_
FN:231,_RNCNvNtCsgT6CZGVyCTz_7phaeton3web8sessions0B5_
FN:72,_RNCNvNtCsgT6CZGVyCTz_7phaeton3web8set_mode0B5_
FN:237,_RNCNvNtCsgT6CZGVyCTz_7phaeton3web9dbus_dump0B5_
FN:185,_RNCNvNtCsgT6CZGVyCTz_7phaeton3web9logs_head0B5_
FN:155,_RNCNvNtCsgT6CZGVyCTz_7phaeton3web9logs_tail0B5_
FN:349,_RNCNvNtCsgT6CZGVyCTz_7phaeton3web5serve0B5_
FN:99,_RNvNtCsgT6CZGVyCTz_7phaeton3web10get_config
FN:111,_RNvNtCsgT6CZGVyCTz_7phaeton3web10put_config
FN:89,_RNvNtCsgT6CZGVyCTz_7phaeton3web11set_current
FN:312,_RNvNtCsgT6CZGVyCTz_7phaeton3web12build_router
FN:269,_RNvNtCsgT6CZGVyCTz_7phaeton3web12update_apply
FN:254,_RNvNtCsgT6CZGVyCTz_7phaeton3web12update_check
FN:212,_RNvNtCsgT6CZGVyCTz_7phaeton3web13logs_download
FN:79,_RNvNtCsgT6CZGVyCTz_7phaeton3web13set_startstop
FN:243,_RNvNtCsgT6CZGVyCTz_7phaeton3web13update_status
FN:141,_RNvNtCsgT6CZGVyCTz_7phaeton3web17get_config_schema
FN:349,_RNvNtCsgT6CZGVyCTz_7phaeton3web5serve
FN:284,_RNvNtCsgT6CZGVyCTz_7phaeton3web6events
FN:46,_RNvNtCsgT6CZGVyCTz_7phaeton3web6health
FN:53,_RNvNtCsgT6CZGVyCTz_7phaeton3web6status
FN:231,_RNvNtCsgT6CZGVyCTz_7phaeton3web8sessions
FN:72,_RNvNtCsgT6CZGVyCTz_7phaeton3web8set_mode
FN:237,_RNvNtCsgT6CZGVyCTz_7phaeton3web9dbus_dump
FN:182,_RNvNtCsgT6CZGVyCTz_7phaeton3web9logs_head
FN:152,_RNvNtCsgT6CZGVyCTz_7phaeton3web9logs_tail
FN:349,_RNCNvNtCsgT6CZGVyCTz_7phaeton3web5serve0Cs4JsBA7u6QVm_7phaeton
FN:316,_RNCNCNvNtCs8Qt6rdyaNFv_7phaeton3web12build_router00B7_
FN:341,_RNCNCNvNtCs8Qt6rdyaNFv_7phaeton3web12build_routers0_00B7_
FN:336,_RNCNCNvNtCs8Qt6rdyaNFv_7phaeton3web12build_routers_00B7_
FN:289,_RNCNCNvNtCs8Qt6rdyaNFv_7phaeton3web6events00B7_
FN:99,_RNCNvNtCs8Qt6rdyaNFv_7phaeton3web10get_config0B5_
FN:114,_RNCNvNtCs8Qt6rdyaNFv_7phaeton3web10put_config0B5_
FN:92,_RNCNvNtCs8Qt6rdyaNFv_7phaeton3web11set_current0B5_
FN:316,_RNCNvNtCs8Qt6rdyaNFv_7phaeton3web12build_router0B5_
FN:341,_RNCNvNtCs8Qt6rdyaNFv_7phaeton3web12build_routers0_0B5_
FN:336,_RNCNvNtCs8Qt6rdyaNFv_7phaeton3web12build_routers_0B5_
FN:269,_RNCNvNtCs8Qt6rdyaNFv_7phaeton3web12update_apply0B5_
FN:254,_RNCNvNtCs8Qt6rdyaNFv_7phaeton3web12update_check0B5_
FN:212,_RNCNvNtCs8Qt6rdyaNFv_7phaeton3web13logs_download0B5_
FN:82,_RNCNvNtCs8Qt6rdyaNFv_7phaeton3web13set_startstop0B5_
FN:243,_RNCNvNtCs8Qt6rdyaNFv_7phaeton3web13update_status0B5_
FN:141,_RNCNvNtCs8Qt6rdyaNFv_7phaeton3web17get_config_schema0B5_
FN:349,_RNCNvNtCs8Qt6rdyaNFv_7phaeton3web5serve0B5_
FN:284,_RNCNvNtCs8Qt6rdyaNFv_7phaeton3web6events0B5_
FN:46,_RNCNvNtCs8Qt6rdyaNFv_7phaeton3web6health0B5_
FN:53,_RNCNvNtCs8Qt6rdyaNFv_7phaeton3web6status0B5_
FN:231,_RNCNvNtCs8Qt6rdyaNFv_7phaeton3web8sessions0B5_
FN:72,_RNCNvNtCs8Qt6rdyaNFv_7phaeton3web8set_mode0B5_
FN:237,_RNCNvNtCs8Qt6rdyaNFv_7phaeton3web9dbus_dump0B5_
FN:185,_RNCNvNtCs8Qt6rdyaNFv_7phaeton3web9logs_head0B5_
FN:155,_RNCNvNtCs8Qt6rdyaNFv_7phaeton3web9logs_tail0B5_
FN:99,_RNvNtCs8Qt6rdyaNFv_7phaeton3web10get_config
FN:111,_RNvNtCs8Qt6rdyaNFv_7phaeton3web10put_config
FN:89,_RNvNtCs8Qt6rdyaNFv_7phaeton3web11set_current
FN:312,_RNvNtCs8Qt6rdyaNFv_7phaeton3web12build_router
FN:269,_RNvNtCs8Qt6rdyaNFv_7phaeton3web12update_apply
FN:254,_RNvNtCs8Qt6rdyaNFv_7phaeton3web12update_check
FN:212,_RNvNtCs8Qt6rdyaNFv_7phaeton3web13logs_download
FN:79,_RNvNtCs8Qt6rdyaNFv_7phaeton3web13set_startstop
FN:243,_RNvNtCs8Qt6rdyaNFv_7phaeton3web13update_status
FN:141,_RNvNtCs8Qt6rdyaNFv_7phaeton3web17get_config_schema
FN:349,_RNvNtCs8Qt6rdyaNFv_7phaeton3web5serve
FN:284,_RNvNtCs8Qt6rdyaNFv_7phaeton3web6events
FN:46,_RNvNtCs8Qt6rdyaNFv_7phaeton3web6health
FN:53,_RNvNtCs8Qt6rdyaNFv_7phaeton3web6status
FN:231,_RNvNtCs8Qt6rdyaNFv_7phaeton3web8sessions
FN:72,_RNvNtCs8Qt6rdyaNFv_7phaeton3web8set_mode
FN:237,_RNvNtCs8Qt6rdyaNFv_7phaeton3web9dbus_dump
FN:182,_RNvNtCs8Qt6rdyaNFv_7phaeton3web9logs_head
FN:152,_RNvNtCs8Qt6rdyaNFv_7phaeton3web9logs_tail
FNDA:0,_RNCNCNvNtCsgT6CZGVyCTz_7phaeton3web12build_router00B7_
FNDA:0,_RNCNCNvNtCsgT6CZGVyCTz_7phaeton3web12build_routers0_00B7_
FNDA:0,_RNCNCNvNtCsgT6CZGVyCTz_7phaeton3web12build_routers_00B7_
FNDA:0,_RNCNCNvNtCsgT6CZGVyCTz_7phaeton3web6events00B7_
FNDA:0,_RNCNvNtCsgT6CZGVyCTz_7phaeton3web10get_config0B5_
FNDA:0,_RNCNvNtCsgT6CZGVyCTz_7phaeton3web10put_config0B5_
FNDA:0,_RNCNvNtCsgT6CZGVyCTz_7phaeton3web11set_current0B5_
FNDA:0,_RNCNvNtCsgT6CZGVyCTz_7phaeton3web12build_router0B5_
FNDA:0,_RNCNvNtCsgT6CZGVyCTz_7phaeton3web12build_routers0_0B5_
FNDA:0,_RNCNvNtCsgT6CZGVyCTz_7phaeton3web12build_routers_0B5_
FNDA:0,_RNCNvNtCsgT6CZGVyCTz_7phaeton3web12update_apply0B5_
FNDA:0,_RNCNvNtCsgT6CZGVyCTz_7phaeton3web12update_check0B5_
FNDA:0,_RNCNvNtCsgT6CZGVyCTz_7phaeton3web13logs_download0B5_
FNDA:0,_RNCNvNtCsgT6CZGVyCTz_7phaeton3web13set_startstop0B5_
FNDA:0,_RNCNvNtCsgT6CZGVyCTz_7phaeton3web13update_status0B5_
FNDA:0,_RNCNvNtCsgT6CZGVyCTz_7phaeton3web17get_config_schema0B5_
FNDA:0,_RNCNvNtCsgT6CZGVyCTz_7phaeton3web6events0B5_
FNDA:0,_RNCNvNtCsgT6CZGVyCTz_7phaeton3web6health0B5_
FNDA:0,_RNCNvNtCsgT6CZGVyCTz_7phaeton3web6status0B5_
FNDA:0,_RNCNvNtCsgT6CZGVyCTz_7phaeton3web8sessions0B5_
FNDA:0,_RNCNvNtCsgT6CZGVyCTz_7phaeton3web8set_mode0B5_
FNDA:0,_RNCNvNtCsgT6CZGVyCTz_7phaeton3web9dbus_dump0B5_
FNDA:0,_RNCNvNtCsgT6CZGVyCTz_7phaeton3web9logs_head0B5_
FNDA:0,_RNCNvNtCsgT6CZGVyCTz_7phaeton3web9logs_tail0B5_
FNDA:0,_RNCNvNtCsgT6CZGVyCTz_7phaeton3web5serve0B5_
FNDA:0,_RNvNtCsgT6CZGVyCTz_7phaeton3web10get_config
FNDA:0,_RNvNtCsgT6CZGVyCTz_7phaeton3web10put_config
FNDA:0,_RNvNtCsgT6CZGVyCTz_7phaeton3web11set_current
FNDA:0,_RNvNtCsgT6CZGVyCTz_7phaeton3web12build_router
FNDA:0,_RNvNtCsgT6CZGVyCTz_7phaeton3web12update_apply
FNDA:0,_RNvNtCsgT6CZGVyCTz_7phaeton3web12update_check
FNDA:0,_RNvNtCsgT6CZGVyCTz_7phaeton3web13logs_download
FNDA:0,_RNvNtCsgT6CZGVyCTz_7phaeton3web13set_startstop
FNDA:0,_RNvNtCsgT6CZGVyCTz_7phaeton3web13update_status
FNDA:0,_RNvNtCsgT6CZGVyCTz_7phaeton3web17get_config_schema
FNDA:0,_RNvNtCsgT6CZGVyCTz_7phaeton3web5serve
FNDA:0,_RNvNtCsgT6CZGVyCTz_7phaeton3web6events
FNDA:0,_RNvNtCsgT6CZGVyCTz_7phaeton3web6health
FNDA:0,_RNvNtCsgT6CZGVyCTz_7phaeton3web6status
FNDA:0,_RNvNtCsgT6CZGVyCTz_7phaeton3web8sessions
FNDA:0,_RNvNtCsgT6CZGVyCTz_7phaeton3web8set_mode
FNDA:0,_RNvNtCsgT6CZGVyCTz_7phaeton3web9dbus_dump
FNDA:0,_RNvNtCsgT6CZGVyCTz_7phaeton3web9logs_head
FNDA:0,_RNvNtCsgT6CZGVyCTz_7phaeton3web9logs_tail
FNDA:0,_RNCNvNtCsgT6CZGVyCTz_7phaeton3web5serve0Cs4JsBA7u6QVm_7phaeton
FNDA:0,_RNCNCNvNtCs8Qt6rdyaNFv_7phaeton3web12build_router00B7_
FNDA:0,_RNCNCNvNtCs8Qt6rdyaNFv_7phaeton3web12build_routers0_00B7_
FNDA:0,_RNCNCNvNtCs8Qt6rdyaNFv_7phaeton3web12build_routers_00B7_
FNDA:0,_RNCNCNvNtCs8Qt6rdyaNFv_7phaeton3web6events00B7_
FNDA:0,_RNCNvNtCs8Qt6rdyaNFv_7phaeton3web10get_config0B5_
FNDA:0,_RNCNvNtCs8Qt6rdyaNFv_7phaeton3web10put_config0B5_
FNDA:0,_RNCNvNtCs8Qt6rdyaNFv_7phaeton3web11set_current0B5_
FNDA:0,_RNCNvNtCs8Qt6rdyaNFv_7phaeton3web12build_router0B5_
FNDA:0,_RNCNvNtCs8Qt6rdyaNFv_7phaeton3web12build_routers0_0B5_
FNDA:0,_RNCNvNtCs8Qt6rdyaNFv_7phaeton3web12build_routers_0B5_
FNDA:0,_RNCNvNtCs8Qt6rdyaNFv_7phaeton3web12update_apply0B5_
FNDA:0,_RNCNvNtCs8Qt6rdyaNFv_7phaeton3web12update_check0B5_
FNDA:0,_RNCNvNtCs8Qt6rdyaNFv_7phaeton3web13logs_download0B5_
FNDA:0,_RNCNvNtCs8Qt6rdyaNFv_7phaeton3web13set_startstop0B5_
FNDA:0,_RNCNvNtCs8Qt6rdyaNFv_7phaeton3web13update_status0B5_
FNDA:0,_RNCNvNtCs8Qt6rdyaNFv_7phaeton3web17get_config_schema0B5_
FNDA:0,_RNCNvNtCs8Qt6rdyaNFv_7phaeton3web5serve0B5_
FNDA:0,_RNCNvNtCs8Qt6rdyaNFv_7phaeton3web6events0B5_
FNDA:0,_RNCNvNtCs8Qt6rdyaNFv_7phaeton3web6health0B5_
FNDA:0,_RNCNvNtCs8Qt6rdyaNFv_7phaeton3web6status0B5_
FNDA:0,_RNCNvNtCs8Qt6rdyaNFv_7phaeton3web8sessions0B5_
FNDA:0,_RNCNvNtCs8Qt6rdyaNFv_7phaeton3web8set_mode0B5_
FNDA:0,_RNCNvNtCs8Qt6rdyaNFv_7phaeton3web9dbus_dump0B5_
FNDA:0,_RNCNvNtCs8Qt6rdyaNFv_7phaeton3web9logs_head0B5_
FNDA:0,_RNCNvNtCs8Qt6rdyaNFv_7phaeton3web9logs_tail0B5_
FNDA:0,_RNvNtCs8Qt6rdyaNFv_7phaeton3web10get_config
FNDA:0,_RNvNtCs8Qt6rdyaNFv_7phaeton3web10put_config
FNDA:0,_RNvNtCs8Qt6rdyaNFv_7phaeton3web11set_current
FNDA:0,_RNvNtCs8Qt6rdyaNFv_7phaeton3web12build_router
FNDA:0,_RNvNtCs8Qt6rdyaNFv_7phaeton3web12update_apply
FNDA:0,_RNvNtCs8Qt6rdyaNFv_7phaeton3web12update_check
FNDA:0,_RNvNtCs8Qt6rdyaNFv_7phaeton3web13logs_download
FNDA:0,_RNvNtCs8Qt6rdyaNFv_7phaeton3web13set_startstop
FNDA:0,_RNvNtCs8Qt6rdyaNFv_7phaeton3web13update_status
FNDA:0,_RNvNtCs8Qt6rdyaNFv_7phaeton3web17get_config_schema
FNDA:0,_RNvNtCs8Qt6rdyaNFv_7phaeton3web5serve
FNDA:0,_RNvNtCs8Qt6rdyaNFv_7phaeton3web6events
FNDA:0,_RNvNtCs8Qt6rdyaNFv_7phaeton3web6health
FNDA:0,_RNvNtCs8Qt6rdyaNFv_7phaeton3web6status
FNDA:0,_RNvNtCs8Qt6rdyaNFv_7phaeton3web8sessions
FNDA:0,_RNvNtCs8Qt6rdyaNFv_7phaeton3web8set_mode
FNDA:0,_RNvNtCs8Qt6rdyaNFv_7phaeton3web9dbus_dump
FNDA:0,_RNvNtCs8Qt6rdyaNFv_7phaeton3web9logs_head
FNDA:0,_RNvNtCs8Qt6rdyaNFv_7phaeton3web9logs_tail
FNF:44
FNH:0
DA:46,0
DA:47,0
DA:48,0
DA:53,0
DA:54,0
DA:55,0
DA:56,0
DA:57,0
DA:58,0
DA:59,0
DA:60,0
DA:62,0
DA:63,0
DA:64,0
DA:65,0
DA:66,0
DA:67,0
DA:68,0
DA:69,0
DA:72,0
DA:73,0
DA:74,0
DA:75,0
DA:76,0
DA:79,0
DA:80,0
DA:81,0
DA:82,0
DA:83,0
DA:84,0
DA:85,0
DA:86,0
DA:89,0
DA:90,0
DA:91,0
DA:92,0
DA:93,0
DA:94,0
DA:95,0
DA:96,0
DA:99,0
DA:100,0
DA:101,0
DA:102,0
DA:103,0
DA:104,0
DA:105,0
DA:106,0
DA:107,0
DA:108,0
DA:111,0
DA:112,0
DA:113,0
DA:114,0
DA:115,0
DA:116,0
DA:118,0
DA:119,0
DA:120,0
DA:121,0
DA:124,0
DA:125,0
DA:126,0
DA:127,0
DA:128,0
DA:129,0
DA:130,0
DA:131,0
DA:132,0
DA:133,0
DA:134,0
DA:135,0
DA:136,0
DA:137,0
DA:138,0
DA:141,0
DA:142,0
DA:143,0
DA:144,0
DA:152,0
DA:153,0
DA:154,0
DA:155,0
DA:156,0
DA:157,0
DA:158,0
DA:159,0
DA:160,0
DA:161,0
DA:163,0
DA:164,0
DA:165,0
DA:166,0
DA:167,0
DA:168,0
DA:169,0
DA:170,0
DA:171,0
DA:172,0
DA:173,0
DA:175,0
DA:177,0
DA:179,0
DA:182,0
DA:183,0
DA:184,0
DA:185,0
DA:186,0
DA:187,0
DA:188,0
DA:189,0
DA:190,0
DA:191,0
DA:193,0
DA:194,0
DA:195,0
DA:196,0
DA:197,0
DA:198,0
DA:199,0
DA:200,0
DA:201,0
DA:202,0
DA:203,0
DA:205,0
DA:207,0
DA:209,0
DA:212,0
DA:213,0
DA:214,0
DA:215,0
DA:217,0
DA:218,0
DA:219,0
DA:220,0
DA:221,0
DA:222,0
DA:224,0
DA:226,0
DA:228,0
DA:231,0
DA:232,0
DA:233,0
DA:234,0
DA:237,0
DA:238,0
DA:239,0
DA:240,0
DA:243,0
DA:244,0
DA:245,0
DA:246,0
DA:248,0
DA:249,0
DA:250,0
DA:251,0
DA:254,0
DA:255,0
DA:256,0
DA:257,0
DA:259,0
DA:260,0
DA:261,0
DA:262,0
DA:263,0
DA:264,0
DA:266,0
DA:269,0
DA:270,0
DA:271,0
DA:272,0
DA:274,0
DA:275,0
DA:276,0
DA:277,0
DA:278,0
DA:279,0
DA:281,0
DA:284,0
DA:285,0
DA:286,0
DA:287,0
DA:289,0
DA:290,0
DA:291,0
DA:292,0
DA:293,0
DA:294,0
DA:295,0
DA:296,0
DA:312,0
DA:313,0
DA:315,0
DA:316,0
DA:317,0
DA:318,0
DA:319,0
DA:320,0
DA:321,0
DA:322,0
DA:323,0
DA:324,0
DA:325,0
DA:326,0
DA:327,0
DA:328,0
DA:329,0
DA:330,0
DA:331,0
DA:332,0
DA:333,0
DA:334,0
DA:335,0
DA:336,0
DA:338,0
DA:339,0
DA:340,0
DA:341,0
DA:343,0
DA:344,0
DA:345,0
DA:346,0
DA:347,0
DA:349,0
DA:350,0
DA:351,0
DA:353,0
DA:354,0
DA:355,0
DA:357,0
DA:358,0
DA:359,0
BRF:0
BRH:0
LF:257
LH:0
end_of_record